
image:     file format elf32-lm32

Sections:
Idx Name          Size      VMA       LMA       File off  Algn
  0 .text         00000630  00000000  00000000  00000054  2**2
                  CONTENTS, ALLOC, LOAD, CODE
  1 .data         00000018  00000630  00000630  00000684  2**2
                  CONTENTS, ALLOC, LOAD, DATA
  2 .bss          0000008c  00000648  00000648  0000069c  2**2
                  ALLOC
  3 .debug_abbrev 0000021a  00000000  00000000  0000069c  2**0
                  CONTENTS, READONLY, DEBUGGING
  4 .debug_info   00000743  00000000  00000000  000008b6  2**0
                  CONTENTS, READONLY, DEBUGGING
  5 .debug_line   0000053e  00000000  00000000  00000ff9  2**0
                  CONTENTS, READONLY, DEBUGGING
  6 .debug_frame  000001b0  00000000  00000000  00001538  2**2
                  CONTENTS, READONLY, DEBUGGING
  7 .debug_pubnames 00000206  00000000  00000000  000016e8  2**0
                  CONTENTS, READONLY, DEBUGGING
  8 .debug_aranges 00000040  00000000  00000000  000018ee  2**0
                  CONTENTS, READONLY, DEBUGGING
  9 .debug_str    000002bf  00000000  00000000  0000192e  2**0
                  CONTENTS, READONLY, DEBUGGING
 10 .comment      00000024  00000000  00000000  00001bed  2**0
                  CONTENTS, READONLY
 11 .debug_loc    0000015f  00000000  00000000  00001c11  2**0
                  CONTENTS, READONLY, DEBUGGING
 12 .debug_ranges 00000038  00000000  00000000  00001d70  2**0
                  CONTENTS, READONLY, DEBUGGING
Disassembly of section .text:

00000000 <_ftext>:
   0:	98 00 00 00 	xor r0,r0,r0
   4:	d0 00 00 00 	wcsr IE,r0
   8:	78 01 00 00 	mvhi r1,0x0
   c:	38 21 00 00 	ori r1,r1,0x0
  10:	d0 e1 00 00 	wcsr EBA,r1
  14:	f8 00 00 3b 	calli 100 <_crt0>
  18:	34 00 00 00 	nop
  1c:	34 00 00 00 	nop

00000020 <_breakpoint_handler>:
  20:	34 00 00 00 	nop
  24:	34 00 00 00 	nop
  28:	34 00 00 00 	nop
  2c:	34 00 00 00 	nop
  30:	34 00 00 00 	nop
  34:	34 00 00 00 	nop
  38:	34 00 00 00 	nop
  3c:	34 00 00 00 	nop

00000040 <_ibuserror_handler>:
  40:	34 00 00 00 	nop
  44:	34 00 00 00 	nop
  48:	34 00 00 00 	nop
  4c:	34 00 00 00 	nop
  50:	34 00 00 00 	nop
  54:	34 00 00 00 	nop
  58:	34 00 00 00 	nop
  5c:	34 00 00 00 	nop

00000060 <_watchpoint_handler>:
  60:	34 00 00 00 	nop
  64:	34 00 00 00 	nop
  68:	34 00 00 00 	nop
  6c:	34 00 00 00 	nop
  70:	34 00 00 00 	nop
  74:	34 00 00 00 	nop
  78:	34 00 00 00 	nop
  7c:	34 00 00 00 	nop

00000080 <_dbuserror_handler>:
  80:	34 00 00 00 	nop
  84:	34 00 00 00 	nop
  88:	34 00 00 00 	nop
  8c:	34 00 00 00 	nop
  90:	34 00 00 00 	nop
  94:	34 00 00 00 	nop
  98:	34 00 00 00 	nop
  9c:	34 00 00 00 	nop

000000a0 <_divzero_handler>:
  a0:	34 00 00 00 	nop
  a4:	34 00 00 00 	nop
  a8:	34 00 00 00 	nop
  ac:	34 00 00 00 	nop
  b0:	34 00 00 00 	nop
  b4:	34 00 00 00 	nop
  b8:	34 00 00 00 	nop
  bc:	34 00 00 00 	nop

000000c0 <_interrupt_handler>:
  c0:	5b 9d 00 00 	sw (sp+0),ra
  c4:	f8 00 00 2b 	calli 170 <_save_all>
  c8:	90 40 08 00 	rcsr r1,IP
  cc:	f8 00 00 59 	calli 230 <irq_handler>
  d0:	78 01 ff ff 	mvhi r1,0xffff
  d4:	38 21 ff ff 	ori r1,r1,0xffff
  d8:	d0 41 00 00 	wcsr IP,r1
  dc:	e0 00 00 38 	bi 1bc <_restore_all_and_eret>

000000e0 <_scall_handler>:
  e0:	34 00 00 00 	nop
  e4:	34 00 00 00 	nop
  e8:	34 00 00 00 	nop
  ec:	34 00 00 00 	nop
  f0:	34 00 00 00 	nop
  f4:	34 00 00 00 	nop
  f8:	34 00 00 00 	nop
  fc:	34 00 00 00 	nop

00000100 <_crt0>:
 100:	78 1c 00 00 	mvhi sp,0x0
 104:	3b 9c 0f fc 	ori sp,sp,0xffc
 108:	78 1a 00 00 	mvhi gp,0x0
 10c:	3b 5a 06 50 	ori gp,gp,0x650
 110:	78 01 00 00 	mvhi r1,0x0
 114:	38 21 06 48 	ori r1,r1,0x648
 118:	78 03 00 00 	mvhi r3,0x0
 11c:	38 63 06 d4 	ori r3,r3,0x6d4

00000120 <.clearBSS>:
 120:	44 23 00 04 	be r1,r3,130 <.callMain>
 124:	58 20 00 00 	sw (r1+0),r0
 128:	34 21 00 04 	addi r1,r1,4
 12c:	e3 ff ff fd 	bi 120 <.clearBSS>

00000130 <.callMain>:
 130:	34 01 00 00 	mvi r1,0
 134:	34 02 00 00 	mvi r2,0
 138:	34 03 00 00 	mvi r3,0
 13c:	f8 00 00 33 	calli 208 <main>

00000140 <irq_enable>:
 140:	34 01 00 01 	mvi r1,1
 144:	d0 01 00 00 	wcsr IE,r1
 148:	c3 a0 00 00 	ret

0000014c <irq_disable>:
 14c:	34 01 00 00 	mvi r1,0
 150:	d0 01 00 00 	wcsr IE,r1
 154:	c3 a0 00 00 	ret

00000158 <irq_set_mask>:
 158:	d0 21 00 00 	wcsr IM,r1
 15c:	c3 a0 00 00 	ret

00000160 <irq_get_mask>:
 160:	90 20 08 00 	rcsr r1,IM
 164:	c3 a0 00 00 	ret

00000168 <jump>:
 168:	c0 20 00 00 	b r1

0000016c <halt>:
 16c:	e0 00 00 00 	bi 16c <halt>

00000170 <_save_all>:
 170:	37 9c ff 80 	addi sp,sp,-128
 174:	5b 81 00 04 	sw (sp+4),r1
 178:	5b 82 00 08 	sw (sp+8),r2
 17c:	5b 83 00 0c 	sw (sp+12),r3
 180:	5b 84 00 10 	sw (sp+16),r4
 184:	5b 85 00 14 	sw (sp+20),r5
 188:	5b 86 00 18 	sw (sp+24),r6
 18c:	5b 87 00 1c 	sw (sp+28),r7
 190:	5b 88 00 20 	sw (sp+32),r8
 194:	5b 89 00 24 	sw (sp+36),r9
 198:	5b 8a 00 28 	sw (sp+40),r10
 19c:	5b 9e 00 78 	sw (sp+120),ea
 1a0:	5b 9f 00 7c 	sw (sp+124),ba
 1a4:	2b 81 00 80 	lw r1,(sp+128)
 1a8:	5b 81 00 74 	sw (sp+116),r1
 1ac:	bb 80 08 00 	mv r1,sp
 1b0:	34 21 00 80 	addi r1,r1,128
 1b4:	5b 81 00 70 	sw (sp+112),r1
 1b8:	c3 a0 00 00 	ret

000001bc <_restore_all_and_eret>:
 1bc:	2b 81 00 04 	lw r1,(sp+4)
 1c0:	2b 82 00 08 	lw r2,(sp+8)
 1c4:	2b 83 00 0c 	lw r3,(sp+12)
 1c8:	2b 84 00 10 	lw r4,(sp+16)
 1cc:	2b 85 00 14 	lw r5,(sp+20)
 1d0:	2b 86 00 18 	lw r6,(sp+24)
 1d4:	2b 87 00 1c 	lw r7,(sp+28)
 1d8:	2b 88 00 20 	lw r8,(sp+32)
 1dc:	2b 89 00 24 	lw r9,(sp+36)
 1e0:	2b 8a 00 28 	lw r10,(sp+40)
 1e4:	2b 9d 00 74 	lw ra,(sp+116)
 1e8:	2b 9e 00 78 	lw ea,(sp+120)
 1ec:	2b 9f 00 7c 	lw ba,(sp+124)
 1f0:	2b 9c 00 70 	lw sp,(sp+112)
 1f4:	c3 c0 00 00 	eret

000001f8 <get_sp>:
 1f8:	bb 80 08 00 	mv r1,sp
 1fc:	c3 a0 00 00 	ret

00000200 <get_gp>:
 200:	bb 40 08 00 	mv r1,gp
 204:	c3 a0 00 00 	ret

00000208 <main>:

#include "soc-hw.h"
//#include "softfloat.h"

int main(){
 208:	37 9c ff fc 	addi sp,sp,-4
 20c:	5b 9d 00 04 	sw (sp+4),ra
//		spi_putchar(0x40);
//		spi_init();
//		spi_sleep();
//		spi_getchar();
//		uart_putstr("Probando 1 2 3");
		i2c_putrwaddr(0x00, 0x40);
 210:	34 02 00 40 	mvi r2,64
 214:	34 01 00 00 	mvi r1,0
 218:	f8 00 00 9e 	calli 490 <i2c_putrwaddr>
		i2c_putchar(0x80);
 21c:	34 01 00 80 	mvi r1,128
 220:	f8 00 00 92 	calli 468 <i2c_putchar>
		//nsleep(150);
		i2c_sleep();
 224:	f8 00 00 bc 	calli 514 <i2c_sleep>
 228:	e3 ff ff fa 	bi 210 <main+0x8>

0000022c <isr_null>:
void tic_isr();
/***************************************************************************
 * IRQ handling
 */
void isr_null()
{
 22c:	c3 a0 00 00 	ret

00000230 <irq_handler>:
}

void irq_handler(uint32_t pending)
{
 230:	37 9c ff f0 	addi sp,sp,-16
 234:	5b 8b 00 10 	sw (sp+16),r11
 238:	5b 8c 00 0c 	sw (sp+12),r12
 23c:	5b 8d 00 08 	sw (sp+8),r13
 240:	5b 9d 00 04 	sw (sp+4),ra
 244:	78 0b 00 00 	mvhi r11,0x0
 248:	39 6b 06 50 	ori r11,r11,0x650
 24c:	b8 20 60 00 	mv r12,r1
 250:	35 6d 00 80 	addi r13,r11,128
 254:	e0 00 00 03 	bi 260 <irq_handler+0x30>
    int i;

    for(i=0; i<32; i++) {
        if (pending & 0x01) (*isr_table[i])();
 258:	35 6b 00 04 	addi r11,r11,4

void irq_handler(uint32_t pending)
{
    int i;

    for(i=0; i<32; i++) {
 25c:	45 6d 00 08 	be r11,r13,27c <irq_handler+0x4c>
        if (pending & 0x01) (*isr_table[i])();
 260:	21 81 00 01 	andi r1,r12,0x1
        pending >>= 1;
 264:	01 8c 00 01 	srui r12,r12,1
void irq_handler(uint32_t pending)
{
    int i;

    for(i=0; i<32; i++) {
        if (pending & 0x01) (*isr_table[i])();
 268:	44 20 ff fc 	be r1,r0,258 <irq_handler+0x28>
 26c:	29 61 00 00 	lw r1,(r11+0)
 270:	35 6b 00 04 	addi r11,r11,4
 274:	d8 20 00 00 	call r1

void irq_handler(uint32_t pending)
{
    int i;

    for(i=0; i<32; i++) {
 278:	5d 6d ff fa 	bne r11,r13,260 <irq_handler+0x30>
        if (pending & 0x01) (*isr_table[i])();
        pending >>= 1;
    }
}
 27c:	2b 9d 00 04 	lw ra,(sp+4)
 280:	2b 8b 00 10 	lw r11,(sp+16)
 284:	2b 8c 00 0c 	lw r12,(sp+12)
 288:	2b 8d 00 08 	lw r13,(sp+8)
 28c:	37 9c 00 10 	addi sp,sp,16
 290:	c3 a0 00 00 	ret

00000294 <isr_init>:

void isr_init()
{
 294:	78 01 00 00 	mvhi r1,0x0
 298:	38 21 06 50 	ori r1,r1,0x650
 29c:	78 02 00 00 	mvhi r2,0x0
 2a0:	38 42 02 2c 	ori r2,r2,0x22c
 2a4:	34 23 00 80 	addi r3,r1,128
    int i;
    for(i=0; i<32; i++)
        isr_table[i] = &isr_null;
 2a8:	58 22 00 00 	sw (r1+0),r2
 2ac:	34 21 00 04 	addi r1,r1,4
}

void isr_init()
{
    int i;
    for(i=0; i<32; i++)
 2b0:	5c 23 ff fe 	bne r1,r3,2a8 <isr_init+0x14>
        isr_table[i] = &isr_null;
}
 2b4:	c3 a0 00 00 	ret

000002b8 <isr_register>:

void isr_register(int irq, isr_ptr_t isr)
{
 2b8:	3c 21 00 02 	sli r1,r1,2
 2bc:	78 03 00 00 	mvhi r3,0x0
 2c0:	38 63 06 50 	ori r3,r3,0x650
 2c4:	b4 61 18 00 	add r3,r3,r1
 2c8:	58 62 00 00 	sw (r3+0),r2
    isr_table[irq] = isr;
}
 2cc:	c3 a0 00 00 	ret

000002d0 <isr_unregister>:

void isr_unregister(int irq)
{
 2d0:	3c 21 00 02 	sli r1,r1,2
 2d4:	78 03 00 00 	mvhi r3,0x0
 2d8:	38 63 06 50 	ori r3,r3,0x650
 2dc:	78 02 00 00 	mvhi r2,0x0
 2e0:	b4 61 18 00 	add r3,r3,r1
 2e4:	38 42 02 2c 	ori r2,r2,0x22c
 2e8:	58 62 00 00 	sw (r3+0),r2
    isr_table[irq] = &isr_null;
}
 2ec:	c3 a0 00 00 	ret

000002f0 <msleep>:
 * TIMER Functions
 */
uint32_t tic_msec;

void msleep(uint32_t msec)
{
 2f0:	78 03 00 00 	mvhi r3,0x0
 2f4:	78 02 00 01 	mvhi r2,0x1
 2f8:	38 42 86 a0 	ori r2,r2,0x86a0
 2fc:	38 63 06 34 	ori r3,r3,0x634
 300:	88 22 08 00 	mul r1,r1,r2
 304:	28 63 00 00 	lw r3,(r3+0)
    uint32_t tcr;

    // Use timer0.1
    timer0->compare1 = (FCPU/1000)*msec;
    timer0->counter1 = 0;
    timer0->tcr1 = TIMER_EN;
 308:	34 02 00 08 	mvi r2,8
void msleep(uint32_t msec)
{
    uint32_t tcr;

    // Use timer0.1
    timer0->compare1 = (FCPU/1000)*msec;
 30c:	58 61 00 10 	sw (r3+16),r1
    timer0->counter1 = 0;
 310:	34 01 00 00 	mvi r1,0
 314:	58 61 00 14 	sw (r3+20),r1
    timer0->tcr1 = TIMER_EN;
 318:	58 62 00 0c 	sw (r3+12),r2

    do {
        //halt();
         tcr = timer0->tcr1;
 31c:	28 61 00 0c 	lw r1,(r3+12)
     } while ( ! (tcr & TIMER_TRIG) );
 320:	20 21 00 01 	andi r1,r1,0x1
 324:	44 20 ff fe 	be r1,r0,31c <msleep+0x2c>
}
 328:	c3 a0 00 00 	ret

0000032c <nsleep>:

void nsleep(uint32_t nsec)
{
 32c:	b4 21 10 00 	add r2,r1,r1
 330:	b4 41 10 00 	add r2,r2,r1
 334:	78 03 00 00 	mvhi r3,0x0
 338:	38 63 06 34 	ori r3,r3,0x634
 33c:	3c 44 00 05 	sli r4,r2,5
 340:	28 63 00 00 	lw r3,(r3+0)
 344:	b4 44 10 00 	add r2,r2,r4
 348:	b4 41 10 00 	add r2,r2,r1
 34c:	58 62 00 10 	sw (r3+16),r2
    uint32_t tcr;

    // Use timer0.1
    timer0->compare1 = (FCPU/1000000)*nsec;
    timer0->counter1 = 0;
 350:	34 01 00 00 	mvi r1,0
 354:	58 61 00 14 	sw (r3+20),r1
    timer0->tcr1 = TIMER_EN;
 358:	34 02 00 08 	mvi r2,8
 35c:	58 62 00 0c 	sw (r3+12),r2

    do {
        //halt();
         tcr = timer0->tcr1;
 360:	28 61 00 0c 	lw r1,(r3+12)
     } while ( ! (tcr & TIMER_TRIG) );
 364:	20 21 00 01 	andi r1,r1,0x1
 368:	44 20 ff fe 	be r1,r0,360 <nsleep+0x34>
}
 36c:	c3 a0 00 00 	ret

00000370 <tic_isr>:

void tic_isr()
{
 370:	78 03 00 00 	mvhi r3,0x0
 374:	38 63 06 d0 	ori r3,r3,0x6d0
 378:	28 62 00 00 	lw r2,(r3+0)
    tic_msec++;
    timer0->tcr0     = TIMER_EN | TIMER_AR | TIMER_IRQEN;
 37c:	78 01 00 00 	mvhi r1,0x0
 380:	38 21 06 34 	ori r1,r1,0x634
 384:	28 24 00 00 	lw r4,(r1+0)
     } while ( ! (tcr & TIMER_TRIG) );
}

void tic_isr()
{
    tic_msec++;
 388:	34 42 00 01 	addi r2,r2,1
 38c:	58 62 00 00 	sw (r3+0),r2
    timer0->tcr0     = TIMER_EN | TIMER_AR | TIMER_IRQEN;
 390:	34 01 00 0e 	mvi r1,14
 394:	58 81 00 00 	sw (r4+0),r1
}
 398:	c3 a0 00 00 	ret

0000039c <tic_init>:

void tic_init()
{
 39c:	78 01 00 00 	mvhi r1,0x0
 3a0:	38 21 06 34 	ori r1,r1,0x634
 3a4:	28 24 00 00 	lw r4,(r1+0)
    tic_msec = 0;
 3a8:	78 02 00 00 	mvhi r2,0x0
 3ac:	38 42 06 d0 	ori r2,r2,0x6d0
 3b0:	34 05 00 00 	mvi r5,0
 3b4:	58 45 00 00 	sw (r2+0),r5

    // Setup timer0.0
    timer0->compare0 = (FCPU/10000);
 3b8:	34 01 27 10 	mvi r1,10000
 3bc:	58 81 00 04 	sw (r4+4),r1
        isr_table[i] = &isr_null;
}

void isr_register(int irq, isr_ptr_t isr)
{
    isr_table[irq] = isr;
 3c0:	78 03 00 00 	mvhi r3,0x0
 3c4:	78 02 00 00 	mvhi r2,0x0
{
    tic_msec = 0;

    // Setup timer0.0
    timer0->compare0 = (FCPU/10000);
    timer0->counter0 = 0;
 3c8:	58 85 00 08 	sw (r4+8),r5
        isr_table[i] = &isr_null;
}

void isr_register(int irq, isr_ptr_t isr)
{
    isr_table[irq] = isr;
 3cc:	38 63 06 50 	ori r3,r3,0x650
 3d0:	38 42 03 70 	ori r2,r2,0x370
    tic_msec = 0;

    // Setup timer0.0
    timer0->compare0 = (FCPU/10000);
    timer0->counter0 = 0;
    timer0->tcr0     = TIMER_EN | TIMER_AR | TIMER_IRQEN;
 3d4:	34 01 00 0e 	mvi r1,14
 3d8:	58 81 00 00 	sw (r4+0),r1
        isr_table[i] = &isr_null;
}

void isr_register(int irq, isr_ptr_t isr)
{
    isr_table[irq] = isr;
 3dc:	58 62 00 04 	sw (r3+4),r2
    timer0->compare0 = (FCPU/10000);
    timer0->counter0 = 0;
    timer0->tcr0     = TIMER_EN | TIMER_AR | TIMER_IRQEN;

    isr_register(1, &tic_isr);
}
 3e0:	c3 a0 00 00 	ret

000003e4 <uart_init>:

/***************************************************************************
 * UART Functions
 */
void uart_init()
{
 3e4:	c3 a0 00 00 	ret

000003e8 <uart_getchar>:
    // Setup Divisor register (Fclk / Baud)
    //uart0->div = (FCPU/(57600*16));
}

char uart_getchar()
{   
 3e8:	78 01 00 00 	mvhi r1,0x0
 3ec:	38 21 06 30 	ori r1,r1,0x630
 3f0:	28 22 00 00 	lw r2,(r1+0)
 3f4:	28 41 00 00 	lw r1,(r2+0)
 3f8:	20 21 00 01 	andi r1,r1,0x1
 3fc:	44 20 ff fe 	be r1,r0,3f4 <uart_getchar+0xc>
    while (! (uart0->ucr & UART_DR)) ;
    return uart0->rxtx;
 400:	28 41 00 04 	lw r1,(r2+4)
}
 404:	20 21 00 ff 	andi r1,r1,0xff
 408:	c3 a0 00 00 	ret

0000040c <uart_putchar>:

void uart_putchar(char c)
{
 40c:	78 02 00 00 	mvhi r2,0x0
 410:	38 42 06 30 	ori r2,r2,0x630
 414:	28 42 00 00 	lw r2,(r2+0)
 418:	20 23 00 ff 	andi r3,r1,0xff
    while (uart0->ucr & UART_BUSY) ;
 41c:	28 41 00 00 	lw r1,(r2+0)
 420:	20 21 00 10 	andi r1,r1,0x10
 424:	5c 20 ff fe 	bne r1,r0,41c <uart_putchar+0x10>
    uart0->rxtx = c;
 428:	58 43 00 04 	sw (r2+4),r3
}
 42c:	c3 a0 00 00 	ret

00000430 <uart_putstr>:

void uart_putstr(char *str)
{
 430:	40 24 00 00 	lbu r4,(r1+0)
 434:	b8 20 18 00 	mv r3,r1
    char *c = str;
    while(*c) {
 438:	44 80 00 0b 	be r4,r0,464 <uart_putstr+0x34>
    return uart0->rxtx;
}

void uart_putchar(char c)
{
    while (uart0->ucr & UART_BUSY) ;
 43c:	78 01 00 00 	mvhi r1,0x0
 440:	38 21 06 30 	ori r1,r1,0x630
 444:	28 22 00 00 	lw r2,(r1+0)
 448:	28 41 00 00 	lw r1,(r2+0)
 44c:	20 21 00 10 	andi r1,r1,0x10
 450:	5c 20 ff fe 	bne r1,r0,448 <uart_putstr+0x18>
    uart0->rxtx = c;
 454:	58 44 00 04 	sw (r2+4),r4
void uart_putstr(char *str)
{
    char *c = str;
    while(*c) {
        uart_putchar(*c);
        c++;
 458:	34 63 00 01 	addi r3,r3,1
}

void uart_putstr(char *str)
{
    char *c = str;
    while(*c) {
 45c:	40 64 00 00 	lbu r4,(r3+0)
 460:	5c 81 ff fa 	bne r4,r1,448 <uart_putstr+0x18>
 464:	c3 a0 00 00 	ret

00000468 <i2c_putchar>:
//static uint8_t ena;
//static uint8_t rw;


void i2c_putchar(uint8_t c)
{
 468:	78 02 00 00 	mvhi r2,0x0
 46c:	38 42 06 40 	ori r2,r2,0x640
 470:	28 44 00 00 	lw r4,(r2+0)
  data = c;
 474:	78 03 00 00 	mvhi r3,0x0
//static uint8_t ena;
//static uint8_t rw;


void i2c_putchar(uint8_t c)
{
 478:	20 21 00 ff 	andi r1,r1,0xff
  data = c;
 47c:	38 63 06 48 	ori r3,r3,0x648
 480:	30 61 00 00 	sb (r3+0),r1
	while ((i2c0->ucr & !I2C_BUSY));
 484:	28 82 00 00 	lw r2,(r4+0)
	i2c0->wxrx = data;
 488:	58 81 00 04 	sw (r4+4),r1
}
 48c:	c3 a0 00 00 	ret

00000490 <i2c_putrwaddr>:

void i2c_putrwaddr (uint8_t rw, uint8_t addrs)
{
 490:	78 03 00 00 	mvhi r3,0x0
 494:	20 21 00 ff 	andi r1,r1,0xff
 498:	20 42 00 ff 	andi r2,r2,0xff
	i2c0 -> rwaddr = ((rw<<7)|addrs>>1);
 49c:	38 63 06 40 	ori r3,r3,0x640
 4a0:	28 64 00 00 	lw r4,(r3+0)
 4a4:	00 42 00 01 	srui r2,r2,1
 4a8:	3c 21 00 07 	sli r1,r1,7
 4ac:	b8 41 10 00 	or r2,r2,r1
 4b0:	58 82 00 08 	sw (r4+8),r2
}
 4b4:	c3 a0 00 00 	ret

000004b8 <i2c_putdatas>:

void i2c_putdatas(char *str)	
{
 4b8:	40 22 00 00 	lbu r2,(r1+0)
 4bc:	b8 20 20 00 	mv r4,r1
	char *c= str;
	while (*c) {
 4c0:	44 40 00 0e 	be r2,r0,4f8 <i2c_putdatas+0x40>


void i2c_putchar(uint8_t c)
{
  data = c;
	while ((i2c0->ucr & !I2C_BUSY));
 4c4:	78 01 00 00 	mvhi r1,0x0
 4c8:	38 21 06 40 	ori r1,r1,0x640
 4cc:	28 23 00 00 	lw r3,(r1+0)
 4d0:	b8 80 08 00 	mv r1,r4
	i2c0->wxrx = data;
 4d4:	b8 40 20 00 	mv r4,r2
void i2c_putdatas(char *str)	
{
	char *c= str;
	while (*c) {
		i2c_putchar(*c);
    c++;
 4d8:	34 21 00 01 	addi r1,r1,1


void i2c_putchar(uint8_t c)
{
  data = c;
	while ((i2c0->ucr & !I2C_BUSY));
 4dc:	28 62 00 00 	lw r2,(r3+0)
	i2c0->wxrx = data;
 4e0:	58 64 00 04 	sw (r3+4),r4
}

void i2c_putdatas(char *str)	
{
	char *c= str;
	while (*c) {
 4e4:	40 22 00 00 	lbu r2,(r1+0)
 4e8:	5c 40 ff fb 	bne r2,r0,4d4 <i2c_putdatas+0x1c>
 4ec:	78 01 00 00 	mvhi r1,0x0
 4f0:	38 21 06 48 	ori r1,r1,0x648
 4f4:	30 24 00 00 	sb (r1+0),r4
 4f8:	c3 a0 00 00 	ret

000004fc <i2c_init>:
    c++;
	}
}

void i2c_init()
{
 4fc:	78 01 00 00 	mvhi r1,0x0
 500:	38 21 06 40 	ori r1,r1,0x640
 504:	28 23 00 00 	lw r3,(r1+0)
 508:	34 02 00 08 	mvi r2,8
 50c:	58 62 00 00 	sw (r3+0),r2
 i2c0->ucr = I2C_ENA;  
}
 510:	c3 a0 00 00 	ret

00000514 <i2c_sleep>:

void i2c_sleep()
{
 514:	78 01 00 00 	mvhi r1,0x0
 518:	38 21 06 40 	ori r1,r1,0x640
 51c:	28 23 00 00 	lw r3,(r1+0)
 520:	28 62 00 00 	lw r2,(r3+0)
 524:	20 42 00 01 	andi r2,r2,0x1
 528:	44 40 00 06 	be r2,r0,540 <i2c_sleep+0x2c>
	while((i2c0->ucr & I2C_BUSY))
	i2c0->ucr = 0x00;
 52c:	34 02 00 00 	mvi r2,0
 530:	58 62 00 00 	sw (r3+0),r2
 i2c0->ucr = I2C_ENA;  
}

void i2c_sleep()
{
	while((i2c0->ucr & I2C_BUSY))
 534:	28 61 00 00 	lw r1,(r3+0)
 538:	20 21 00 01 	andi r1,r1,0x1
 53c:	5c 20 ff fd 	bne r1,r0,530 <i2c_sleep+0x1c>
 540:	c3 a0 00 00 	ret

00000544 <i2c_getdata>:
	i2c0->ucr = 0x00;
}

char i2c_getdata()
{
 544:	78 01 00 00 	mvhi r1,0x0
 548:	38 21 06 40 	ori r1,r1,0x640
 54c:	28 22 00 00 	lw r2,(r1+0)
 550:	28 41 00 00 	lw r1,(r2+0)
 554:	20 21 00 01 	andi r1,r1,0x1
 558:	44 20 00 04 	be r1,r0,568 <i2c_getdata+0x24>
 55c:	28 41 00 00 	lw r1,(r2+0)
 560:	20 21 00 02 	andi r1,r1,0x2
 564:	44 20 ff fb 	be r1,r0,550 <i2c_getdata+0xc>
	while ( (i2c0->ucr & I2C_BUSY) && (!(i2c0->ucr & I2C_ERROR)));
	return i2c0-> wxrx;
 568:	28 41 00 04 	lw r1,(r2+4)
}
 56c:	20 21 00 ff 	andi r1,r1,0xff
 570:	c3 a0 00 00 	ret

00000574 <everloop_init>:
 * everloop Functions
 */
static uint32_t leds;

void everloop_init()
{
 574:	78 01 00 00 	mvhi r1,0x0
 578:	38 21 06 44 	ori r1,r1,0x644
 57c:	28 23 00 00 	lw r3,(r1+0)
 580:	34 02 00 00 	mvi r2,0
  //LEDs off
  everloop0->leds = 0;
  leds = 0;
 584:	78 01 00 00 	mvhi r1,0x0
static uint32_t leds;

void everloop_init()
{
  //LEDs off
  everloop0->leds = 0;
 588:	58 62 00 00 	sw (r3+0),r2
  leds = 0;
 58c:	38 21 06 4c 	ori r1,r1,0x64c
 590:	58 22 00 00 	sw (r1+0),r2
}
 594:	c3 a0 00 00 	ret

00000598 <everloop_leds_on>:

void everloop_leds_on(uint8_t leds_on)
{
 598:	78 03 00 00 	mvhi r3,0x0
 59c:	38 63 06 4c 	ori r3,r3,0x64c
 5a0:	28 65 00 00 	lw r5,(r3+0)
  //LEDs on
  leds |= leds_on;
  everloop0->leds = leds;
 5a4:	78 02 00 00 	mvhi r2,0x0
 5a8:	38 42 06 44 	ori r2,r2,0x644
  everloop0->leds = 0;
  leds = 0;
}

void everloop_leds_on(uint8_t leds_on)
{
 5ac:	20 21 00 ff 	andi r1,r1,0xff
  //LEDs on
  leds |= leds_on;
  everloop0->leds = leds;
 5b0:	28 44 00 00 	lw r4,(r2+0)
}

void everloop_leds_on(uint8_t leds_on)
{
  //LEDs on
  leds |= leds_on;
 5b4:	b8 25 08 00 	or r1,r1,r5
 5b8:	58 61 00 00 	sw (r3+0),r1
  everloop0->leds = leds;
 5bc:	58 81 00 00 	sw (r4+0),r1
}
 5c0:	c3 a0 00 00 	ret

000005c4 <everloop_leds_off>:

void everloop_leds_off(uint8_t leds_off)
{
 5c4:	78 03 00 00 	mvhi r3,0x0
 5c8:	38 63 06 4c 	ori r3,r3,0x64c
 5cc:	28 65 00 00 	lw r5,(r3+0)
  //LEDs off
  leds &= ~leds_off;
  everloop0->leds = leds;
 5d0:	78 02 00 00 	mvhi r2,0x0
  leds |= leds_on;
  everloop0->leds = leds;
}

void everloop_leds_off(uint8_t leds_off)
{
 5d4:	20 21 00 ff 	andi r1,r1,0xff
  //LEDs off
  leds &= ~leds_off;
  everloop0->leds = leds;
 5d8:	38 42 06 44 	ori r2,r2,0x644
}

void everloop_leds_off(uint8_t leds_off)
{
  //LEDs off
  leds &= ~leds_off;
 5dc:	a4 20 08 00 	not r1,r1
  everloop0->leds = leds;
 5e0:	28 44 00 00 	lw r4,(r2+0)
}

void everloop_leds_off(uint8_t leds_off)
{
  //LEDs off
  leds &= ~leds_off;
 5e4:	a0 25 08 00 	and r1,r1,r5
 5e8:	58 61 00 00 	sw (r3+0),r1
  everloop0->leds = leds;
 5ec:	58 81 00 00 	sw (r4+0),r1
}
 5f0:	c3 a0 00 00 	ret

000005f4 <everloop_leds>:

void everloop_leds(uint8_t leds0)
{
 5f4:	78 02 00 00 	mvhi r2,0x0
 5f8:	38 42 06 44 	ori r2,r2,0x644
 5fc:	28 44 00 00 	lw r4,(r2+0)
  //LEDs
  leds = leds0; //coge lo que le llega a la funcion y lo manda a los leds
 600:	78 03 00 00 	mvhi r3,0x0
  leds &= ~leds_off;
  everloop0->leds = leds;
}

void everloop_leds(uint8_t leds0)
{
 604:	20 21 00 ff 	andi r1,r1,0xff
  //LEDs
  leds = leds0; //coge lo que le llega a la funcion y lo manda a los leds
 608:	38 63 06 4c 	ori r3,r3,0x64c
 60c:	58 61 00 00 	sw (r3+0),r1
  everloop0->leds = leds0;
 610:	58 81 00 00 	sw (r4+0),r1
}
 614:	c3 a0 00 00 	ret

00000618 <everloop_read_sw>:

uint8_t everloop_read_sw (void)
{
 618:	78 01 00 00 	mvhi r1,0x0
 61c:	38 21 06 44 	ori r1,r1,0x644
 620:	28 22 00 00 	lw r2,(r1+0)
 624:	28 41 00 04 	lw r1,(r2+4)
return everloop0->switches;
}
 628:	20 21 00 ff 	andi r1,r1,0xff
 62c:	c3 a0 00 00 	ret
