
image:     file format elf32-lm32

Sections:
Idx Name          Size      VMA       LMA       File off  Algn
  0 .text         00000270  00860000  00860000  00000054  2**2
                  CONTENTS, ALLOC, LOAD, CODE
  1 .rodata       0000001c  00860270  00860270  000002c4  2**2
                  CONTENTS, ALLOC, LOAD, READONLY, DATA
  2 .data         0000000c  0086028c  0086028c  000002e0  2**2
                  CONTENTS, ALLOC, LOAD, DATA
  3 .bss          00000004  00860298  00860298  000002ec  2**2
                  ALLOC
  4 .debug_abbrev 0000021b  00000000  00000000  000002ec  2**0
                  CONTENTS, READONLY, DEBUGGING
  5 .debug_info   000003d6  00000000  00000000  00000507  2**0
                  CONTENTS, READONLY, DEBUGGING
  6 .debug_line   000002f8  00000000  00000000  000008dd  2**0
                  CONTENTS, READONLY, DEBUGGING
  7 .debug_frame  000000a0  00000000  00000000  00000bd8  2**2
                  CONTENTS, READONLY, DEBUGGING
  8 .debug_loc    00000119  00000000  00000000  00000c78  2**0
                  CONTENTS, READONLY, DEBUGGING
  9 .debug_pubnames 000000bc  00000000  00000000  00000d91  2**0
                  CONTENTS, READONLY, DEBUGGING
 10 .debug_aranges 00000040  00000000  00000000  00000e4d  2**0
                  CONTENTS, READONLY, DEBUGGING
 11 .debug_str    0000017d  00000000  00000000  00000e8d  2**0
                  CONTENTS, READONLY, DEBUGGING
 12 .comment      00000024  00000000  00000000  0000100a  2**0
                  CONTENTS, READONLY
Disassembly of section .text:

00860000 <_ftext>:
  860000:	98 00 00 00 	xor r0,r0,r0
  860004:	d0 00 00 00 	wcsr IE,r0
  860008:	78 01 00 86 	mvhi r1,0x86
  86000c:	38 21 00 00 	ori r1,r1,0x0
  860010:	d0 e1 00 00 	wcsr EBA,r1
  860014:	f8 00 00 03 	calli 860020 <_crt0>
  860018:	34 00 00 00 	nop
  86001c:	34 00 00 00 	nop

00860020 <_crt0>:
  860020:	78 1c 00 86 	mvhi sp,0x86
  860024:	3b 9c 0f fc 	ori sp,sp,0xffc
  860028:	78 1a 00 86 	mvhi gp,0x86
  86002c:	3b 5a 02 a0 	ori gp,gp,0x2a0
  860030:	78 01 00 86 	mvhi r1,0x86
  860034:	38 21 02 98 	ori r1,r1,0x298
  860038:	78 03 00 86 	mvhi r3,0x86
  86003c:	38 63 02 9c 	ori r3,r3,0x29c

00860040 <.clearBSS>:
  860040:	44 23 00 04 	be r1,r3,860050 <.callMain>
  860044:	58 20 00 00 	sw (r1+0),r0
  860048:	34 21 00 04 	addi r1,r1,4
  86004c:	e3 ff ff fd 	bi 860040 <.clearBSS>

00860050 <.callMain>:
  860050:	34 01 00 00 	mvi r1,0
  860054:	34 02 00 00 	mvi r2,0
  860058:	34 03 00 00 	mvi r3,0
  86005c:	f8 00 00 1d 	calli 8600d0 <main>

00860060 <irq_enable>:
  860060:	34 01 00 01 	mvi r1,1
  860064:	d0 01 00 00 	wcsr IE,r1
  860068:	c3 a0 00 00 	ret

0086006c <irq_mask>:
  86006c:	34 01 00 0f 	mvi r1,15
  860070:	d0 21 00 00 	wcsr IM,r1
  860074:	c3 a0 00 00 	ret

00860078 <irq_disable>:
  860078:	34 01 00 00 	mvi r1,0
  86007c:	d0 01 00 00 	wcsr IE,r1
  860080:	c3 a0 00 00 	ret

00860084 <jump>:
  860084:	c0 20 00 00 	b r1

00860088 <halt>:
  860088:	e0 00 00 00 	bi 860088 <halt>

0086008c <read_uint32>:
 */
#include "soc-hw.h"

/* prototypes */
uint32_t read_uint32()
{
  86008c:	37 9c ff f8 	addi sp,sp,-8
  860090:	5b 8b 00 08 	sw (sp+8),r11
  860094:	5b 9d 00 04 	sw (sp+4),ra
	uint32_t val = 0, i;

    for (i = 0; i < 4; i++) {
        val <<= 8;
        val += (uint8_t)uart_getchar();
  860098:	f8 00 00 56 	calli 8601f0 <uart_getchar>
uint32_t read_uint32()
{
	uint32_t val = 0, i;

    for (i = 0; i < 4; i++) {
        val <<= 8;
  86009c:	3c 2b 00 08 	sli r11,r1,8
        val += (uint8_t)uart_getchar();
  8600a0:	f8 00 00 54 	calli 8601f0 <uart_getchar>
  8600a4:	b5 61 58 00 	add r11,r11,r1
uint32_t read_uint32()
{
	uint32_t val = 0, i;

    for (i = 0; i < 4; i++) {
        val <<= 8;
  8600a8:	3d 6b 00 08 	sli r11,r11,8
        val += (uint8_t)uart_getchar();
  8600ac:	f8 00 00 51 	calli 8601f0 <uart_getchar>
  8600b0:	b5 61 58 00 	add r11,r11,r1
uint32_t read_uint32()
{
	uint32_t val = 0, i;

    for (i = 0; i < 4; i++) {
        val <<= 8;
  8600b4:	3d 6b 00 08 	sli r11,r11,8
        val += (uint8_t)uart_getchar();
  8600b8:	f8 00 00 4e 	calli 8601f0 <uart_getchar>
    }

    return val;
}
  8600bc:	b5 61 08 00 	add r1,r11,r1
  8600c0:	2b 9d 00 04 	lw ra,(sp+4)
  8600c4:	2b 8b 00 08 	lw r11,(sp+8)
  8600c8:	37 9c 00 08 	addi sp,sp,8
  8600cc:	c3 a0 00 00 	ret

008600d0 <main>:

int main(int argc, char **argv)
{
  8600d0:	37 9c ff e4 	addi sp,sp,-28
  8600d4:	5b 8b 00 1c 	sw (sp+28),r11
  8600d8:	5b 8c 00 18 	sw (sp+24),r12
  8600dc:	5b 8d 00 14 	sw (sp+20),r13
  8600e0:	5b 8e 00 10 	sw (sp+16),r14
  8600e4:	5b 8f 00 0c 	sw (sp+12),r15
  8600e8:	5b 90 00 08 	sw (sp+8),r16
  8600ec:	5b 9d 00 04 	sw (sp+4),ra
  8600f0:	34 01 00 2a 	mvi r1,42

	c = '*'; // print msg on first iteration
	for(;;) {
		uint32_t start, size; 

		switch (c) {
  8600f4:	34 0d 00 67 	mvi r13,103
  8600f8:	34 0e 00 75 	mvi r14,117
  8600fc:	34 0f 00 64 	mvi r15,100
    		case 'g': // goto
    			start = read_uint32();
    			jump(start);
    			break;   
		default:
			uart_putstr("**SAKC/bootloader** > \r\n");
  860100:	78 10 00 86 	mvhi r16,0x86

	c = '*'; // print msg on first iteration
	for(;;) {
		uint32_t start, size; 

		switch (c) {
  860104:	44 2d 00 08 	be r1,r13,860124 <main+0x54>
  860108:	44 2e 00 16 	be r1,r14,860160 <main+0x90>
  86010c:	44 2f 00 0a 	be r1,r15,860134 <main+0x64>
    		case 'g': // goto
    			start = read_uint32();
    			jump(start);
    			break;   
		default:
			uart_putstr("**SAKC/bootloader** > \r\n");
  860110:	ba 00 08 00 	mv r1,r16
  860114:	38 21 02 70 	ori r1,r1,0x270
  860118:	f8 00 00 48 	calli 860238 <uart_putstr>
			break;
		};
		c = uart_getchar();
  86011c:	f8 00 00 35 	calli 8601f0 <uart_getchar>

	c = '*'; // print msg on first iteration
	for(;;) {
		uint32_t start, size; 

		switch (c) {
  860120:	5c 2d ff fa 	bne r1,r13,860108 <main+0x38>
    			size  = read_uint32();
    			for (p = (int8_t *) start; p < (int8_t *) (start+size); p++)
				uart_putchar( *p );
    			break;
    		case 'g': // goto
    			start = read_uint32();
  860124:	fb ff ff da 	calli 86008c <read_uint32>
    			jump(start);
  860128:	fb ff ff d7 	calli 860084 <jump>
    			break;   
		default:
			uart_putstr("**SAKC/bootloader** > \r\n");
			break;
		};
		c = uart_getchar();
  86012c:	f8 00 00 31 	calli 8601f0 <uart_getchar>
  860130:	e3 ff ff fc 	bi 860120 <main+0x50>
    			size  = read_uint32();
    			for (p = (int8_t *) start; p < (int8_t *) (start+size); p++)
    				*p = uart_getchar();
    			break;
		case 'd': // download
    			start = read_uint32();
  860134:	fb ff ff d6 	calli 86008c <read_uint32>
    			size  = read_uint32();
    			for (p = (int8_t *) start; p < (int8_t *) (start+size); p++)
  860138:	b8 20 58 00 	mv r11,r1
    			for (p = (int8_t *) start; p < (int8_t *) (start+size); p++)
    				*p = uart_getchar();
    			break;
		case 'd': // download
    			start = read_uint32();
    			size  = read_uint32();
  86013c:	fb ff ff d4 	calli 86008c <read_uint32>
    			for (p = (int8_t *) start; p < (int8_t *) (start+size); p++)
  860140:	b5 61 60 00 	add r12,r11,r1
  860144:	51 6c ff f6 	bgeu r11,r12,86011c <main+0x4c>
				uart_putchar( *p );
  860148:	41 61 00 00 	lbu r1,(r11+0)
    				*p = uart_getchar();
    			break;
		case 'd': // download
    			start = read_uint32();
    			size  = read_uint32();
    			for (p = (int8_t *) start; p < (int8_t *) (start+size); p++)
  86014c:	35 6b 00 01 	addi r11,r11,1
				uart_putchar( *p );
  860150:	f8 00 00 31 	calli 860214 <uart_putchar>
    				*p = uart_getchar();
    			break;
		case 'd': // download
    			start = read_uint32();
    			size  = read_uint32();
    			for (p = (int8_t *) start; p < (int8_t *) (start+size); p++)
  860154:	55 8b ff fd 	bgu r12,r11,860148 <main+0x78>
    			break;   
		default:
			uart_putstr("**SAKC/bootloader** > \r\n");
			break;
		};
		c = uart_getchar();
  860158:	f8 00 00 26 	calli 8601f0 <uart_getchar>
  86015c:	e3 ff ff f1 	bi 860120 <main+0x50>
	for(;;) {
		uint32_t start, size; 

		switch (c) {
    		case 'u': // upload 
    			start = read_uint32();
  860160:	fb ff ff cb 	calli 86008c <read_uint32>
    			size  = read_uint32();
    			for (p = (int8_t *) start; p < (int8_t *) (start+size); p++)
  860164:	b8 20 58 00 	mv r11,r1
		uint32_t start, size; 

		switch (c) {
    		case 'u': // upload 
    			start = read_uint32();
    			size  = read_uint32();
  860168:	fb ff ff c9 	calli 86008c <read_uint32>
    			for (p = (int8_t *) start; p < (int8_t *) (start+size); p++)
  86016c:	b5 61 60 00 	add r12,r11,r1
  860170:	51 6c ff eb 	bgeu r11,r12,86011c <main+0x4c>
    				*p = uart_getchar();
  860174:	f8 00 00 1f 	calli 8601f0 <uart_getchar>
  860178:	31 61 00 00 	sb (r11+0),r1

		switch (c) {
    		case 'u': // upload 
    			start = read_uint32();
    			size  = read_uint32();
    			for (p = (int8_t *) start; p < (int8_t *) (start+size); p++)
  86017c:	35 6b 00 01 	addi r11,r11,1
  860180:	55 8b ff fd 	bgu r12,r11,860174 <main+0xa4>
    			break;   
		default:
			uart_putstr("**SAKC/bootloader** > \r\n");
			break;
		};
		c = uart_getchar();
  860184:	f8 00 00 1b 	calli 8601f0 <uart_getchar>
  860188:	e3 ff ff e6 	bi 860120 <main+0x50>

0086018c <sleep>:

/***************************************************************************
 * General utility functions
 */
void sleep(int msec)
{
  86018c:	78 02 00 86 	mvhi r2,0x86
  860190:	38 42 02 90 	ori r2,r2,0x290
  860194:	38 03 c3 50 	mvu r3,0xc350
  860198:	88 23 08 00 	mul r1,r1,r3
  86019c:	28 43 00 00 	lw r3,(r2+0)
	uint32_t tcr;

	// Use timer0.1
	timer0->compare1 = (FCPU/1000)*msec;
	timer0->counter1 = 0;
	timer0->tcr1 = TIMER_EN | TIMER_IRQEN;
  8601a0:	34 02 00 0a 	mvi r2,10
void sleep(int msec)
{
	uint32_t tcr;

	// Use timer0.1
	timer0->compare1 = (FCPU/1000)*msec;
  8601a4:	58 61 00 10 	sw (r3+16),r1
	timer0->counter1 = 0;
  8601a8:	34 01 00 00 	mvi r1,0
  8601ac:	58 61 00 14 	sw (r3+20),r1
	timer0->tcr1 = TIMER_EN | TIMER_IRQEN;
  8601b0:	58 62 00 0c 	sw (r3+12),r2

	do {
		//halt();
 		tcr = timer0->tcr1;
  8601b4:	28 61 00 0c 	lw r1,(r3+12)
 	} while ( ! (tcr & TIMER_TRIG) );
  8601b8:	20 21 00 01 	andi r1,r1,0x1
  8601bc:	44 20 ff fe 	be r1,r0,8601b4 <sleep+0x28>
}
  8601c0:	c3 a0 00 00 	ret

008601c4 <tic_init>:

void tic_init()
{
  8601c4:	78 01 00 86 	mvhi r1,0x86
  8601c8:	38 21 02 90 	ori r1,r1,0x290
  8601cc:	28 23 00 00 	lw r3,(r1+0)
  8601d0:	38 02 c3 50 	mvu r2,0xc350
	// Setup timer0.0
	timer0->compare0 = (FCPU/1000);
	timer0->counter0 = 0;
  8601d4:	34 01 00 00 	mvi r1,0
}

void tic_init()
{
	// Setup timer0.0
	timer0->compare0 = (FCPU/1000);
  8601d8:	58 62 00 04 	sw (r3+4),r2
	timer0->counter0 = 0;
  8601dc:	58 61 00 08 	sw (r3+8),r1
	timer0->tcr0     = TIMER_EN | TIMER_AR | TIMER_IRQEN;
  8601e0:	34 02 00 0e 	mvi r2,14
  8601e4:	58 62 00 00 	sw (r3+0),r2
}
  8601e8:	c3 a0 00 00 	ret

008601ec <uart_init>:

/***************************************************************************
 * UART Functions
 */
void uart_init()
{
  8601ec:	c3 a0 00 00 	ret

008601f0 <uart_getchar>:
	// Setup Divisor register (Fclk / Baud)
	//uart0->div = (FCPU/(57600*16));
}

char uart_getchar()
{   
  8601f0:	78 01 00 86 	mvhi r1,0x86
  8601f4:	38 21 02 8c 	ori r1,r1,0x28c
  8601f8:	28 22 00 00 	lw r2,(r1+0)
  8601fc:	28 41 00 00 	lw r1,(r2+0)
  860200:	20 21 00 01 	andi r1,r1,0x1
  860204:	44 20 ff fe 	be r1,r0,8601fc <uart_getchar+0xc>
	while (! (uart0->ucr & UART_DR)) ;
	return uart0->rxtx;
  860208:	28 41 00 04 	lw r1,(r2+4)
}
  86020c:	20 21 00 ff 	andi r1,r1,0xff
  860210:	c3 a0 00 00 	ret

00860214 <uart_putchar>:

void uart_putchar(char c)
{
  860214:	78 02 00 86 	mvhi r2,0x86
  860218:	38 42 02 8c 	ori r2,r2,0x28c
  86021c:	28 42 00 00 	lw r2,(r2+0)
  860220:	20 23 00 ff 	andi r3,r1,0xff
	while (uart0->ucr & UART_BUSY) ;
  860224:	28 41 00 00 	lw r1,(r2+0)
  860228:	20 21 00 10 	andi r1,r1,0x10
  86022c:	5c 20 ff fe 	bne r1,r0,860224 <uart_putchar+0x10>
	uart0->rxtx = c;
  860230:	58 43 00 04 	sw (r2+4),r3
}
  860234:	c3 a0 00 00 	ret

00860238 <uart_putstr>:

void uart_putstr(char *str)
{
  860238:	40 24 00 00 	lbu r4,(r1+0)
  86023c:	b8 20 18 00 	mv r3,r1
	char *c = str;
	while(*c) {
  860240:	44 80 00 0b 	be r4,r0,86026c <uart_putstr+0x34>
	return uart0->rxtx;
}

void uart_putchar(char c)
{
	while (uart0->ucr & UART_BUSY) ;
  860244:	78 01 00 86 	mvhi r1,0x86
  860248:	38 21 02 8c 	ori r1,r1,0x28c
  86024c:	28 22 00 00 	lw r2,(r1+0)
  860250:	28 41 00 00 	lw r1,(r2+0)
  860254:	20 21 00 10 	andi r1,r1,0x10
  860258:	5c 20 ff fe 	bne r1,r0,860250 <uart_putstr+0x18>
	uart0->rxtx = c;
  86025c:	58 44 00 04 	sw (r2+4),r4
void uart_putstr(char *str)
{
	char *c = str;
	while(*c) {
		uart_putchar(*c);
		c++;
  860260:	34 63 00 01 	addi r3,r3,1
}

void uart_putstr(char *str)
{
	char *c = str;
	while(*c) {
  860264:	40 64 00 00 	lbu r4,(r3+0)
  860268:	5c 81 ff fa 	bne r4,r1,860250 <uart_putstr+0x18>
  86026c:	c3 a0 00 00 	ret
