
image:     file format elf32-lm32

Sections:
Idx Name          Size      VMA       LMA       File off  Algn
  0 .text         00002490  00000000  00000000  00000054  2**2
                  CONTENTS, ALLOC, LOAD, CODE
  1 .rodata       00000440  00002490  00002490  000024e4  2**2
                  CONTENTS, ALLOC, LOAD, READONLY, DATA
  2 .data         00000014  000028d0  000028d0  00002924  2**2
                  CONTENTS, ALLOC, LOAD, DATA
  3 .bss          00000094  000028e4  000028e4  00002938  2**2
                  ALLOC
  4 .debug_abbrev 0000054d  00000000  00000000  00002938  2**0
                  CONTENTS, READONLY, DEBUGGING
  5 .debug_info   0000248a  00000000  00000000  00002e85  2**0
                  CONTENTS, READONLY, DEBUGGING
  6 .debug_line   0000221a  00000000  00000000  0000530f  2**0
                  CONTENTS, READONLY, DEBUGGING
  7 .debug_frame  00000320  00000000  00000000  0000752c  2**2
                  CONTENTS, READONLY, DEBUGGING
  8 .debug_loc    00002019  00000000  00000000  0000784c  2**0
                  CONTENTS, READONLY, DEBUGGING
  9 .debug_pubnames 000003a3  00000000  00000000  00009865  2**0
                  CONTENTS, READONLY, DEBUGGING
 10 .debug_aranges 00000060  00000000  00000000  00009c08  2**0
                  CONTENTS, READONLY, DEBUGGING
 11 .debug_str    00000860  00000000  00000000  00009c68  2**0
                  CONTENTS, READONLY, DEBUGGING
 12 .comment      00000036  00000000  00000000  0000a4c8  2**0
                  CONTENTS, READONLY
 13 .debug_ranges 00000a28  00000000  00000000  0000a4fe  2**0
                  CONTENTS, READONLY, DEBUGGING
Disassembly of section .text:

00000000 <_ftext>:
       0:	98 00 00 00 	xor r0,r0,r0
       4:	d0 00 00 00 	wcsr IE,r0
       8:	78 01 00 00 	mvhi r1,0x0
       c:	38 21 00 00 	ori r1,r1,0x0
      10:	d0 e1 00 00 	wcsr EBA,r1
      14:	f8 00 00 3b 	calli 100 <_crt0>
      18:	34 00 00 00 	nop
      1c:	34 00 00 00 	nop

00000020 <_breakpoint_handler>:
      20:	34 00 00 00 	nop
      24:	34 00 00 00 	nop
      28:	34 00 00 00 	nop
      2c:	34 00 00 00 	nop
      30:	34 00 00 00 	nop
      34:	34 00 00 00 	nop
      38:	34 00 00 00 	nop
      3c:	34 00 00 00 	nop

00000040 <_ibuserror_handler>:
      40:	34 00 00 00 	nop
      44:	34 00 00 00 	nop
      48:	34 00 00 00 	nop
      4c:	34 00 00 00 	nop
      50:	34 00 00 00 	nop
      54:	34 00 00 00 	nop
      58:	34 00 00 00 	nop
      5c:	34 00 00 00 	nop

00000060 <_watchpoint_handler>:
      60:	34 00 00 00 	nop
      64:	34 00 00 00 	nop
      68:	34 00 00 00 	nop
      6c:	34 00 00 00 	nop
      70:	34 00 00 00 	nop
      74:	34 00 00 00 	nop
      78:	34 00 00 00 	nop
      7c:	34 00 00 00 	nop

00000080 <_dbuserror_handler>:
      80:	34 00 00 00 	nop
      84:	34 00 00 00 	nop
      88:	34 00 00 00 	nop
      8c:	34 00 00 00 	nop
      90:	34 00 00 00 	nop
      94:	34 00 00 00 	nop
      98:	34 00 00 00 	nop
      9c:	34 00 00 00 	nop

000000a0 <_divzero_handler>:
      a0:	34 00 00 00 	nop
      a4:	34 00 00 00 	nop
      a8:	34 00 00 00 	nop
      ac:	34 00 00 00 	nop
      b0:	34 00 00 00 	nop
      b4:	34 00 00 00 	nop
      b8:	34 00 00 00 	nop
      bc:	34 00 00 00 	nop

000000c0 <_interrupt_handler>:
      c0:	5b 9d 00 00 	sw (sp+0),ra
      c4:	f8 00 00 2b 	calli 170 <_save_all>
      c8:	90 40 08 00 	rcsr r1,IP
      cc:	f8 00 00 ba 	calli 3b4 <irq_handler>
      d0:	78 01 ff ff 	mvhi r1,0xffff
      d4:	38 21 ff ff 	ori r1,r1,0xffff
      d8:	d0 41 00 00 	wcsr IP,r1
      dc:	e0 00 00 38 	bi 1bc <_restore_all_and_eret>

000000e0 <_scall_handler>:
      e0:	34 00 00 00 	nop
      e4:	34 00 00 00 	nop
      e8:	34 00 00 00 	nop
      ec:	34 00 00 00 	nop
      f0:	34 00 00 00 	nop
      f4:	34 00 00 00 	nop
      f8:	34 00 00 00 	nop
      fc:	34 00 00 00 	nop

00000100 <_crt0>:
     100:	78 1c 00 00 	mvhi sp,0x0
     104:	3b 9c 3f fc 	ori sp,sp,0x3ffc
     108:	78 1a 00 00 	mvhi gp,0x0
     10c:	3b 5a 28 f0 	ori gp,gp,0x28f0
     110:	78 01 00 00 	mvhi r1,0x0
     114:	38 21 28 e4 	ori r1,r1,0x28e4
     118:	78 03 00 00 	mvhi r3,0x0
     11c:	38 63 29 78 	ori r3,r3,0x2978

00000120 <.clearBSS>:
     120:	44 23 00 04 	be r1,r3,130 <.callMain>
     124:	58 20 00 00 	sw (r1+0),r0
     128:	34 21 00 04 	addi r1,r1,4
     12c:	e3 ff ff fd 	bi 120 <.clearBSS>

00000130 <.callMain>:
     130:	34 01 00 00 	mvi r1,0
     134:	34 02 00 00 	mvi r2,0
     138:	34 03 00 00 	mvi r3,0
     13c:	f8 00 00 33 	calli 208 <main>

00000140 <irq_enable>:
     140:	34 01 00 01 	mvi r1,1
     144:	d0 01 00 00 	wcsr IE,r1
     148:	c3 a0 00 00 	ret

0000014c <irq_disable>:
     14c:	34 01 00 00 	mvi r1,0
     150:	d0 01 00 00 	wcsr IE,r1
     154:	c3 a0 00 00 	ret

00000158 <irq_set_mask>:
     158:	d0 21 00 00 	wcsr IM,r1
     15c:	c3 a0 00 00 	ret

00000160 <irq_get_mask>:
     160:	90 20 08 00 	rcsr r1,IM
     164:	c3 a0 00 00 	ret

00000168 <jump>:
     168:	c0 20 00 00 	b r1

0000016c <halt>:
     16c:	e0 00 00 00 	bi 16c <halt>

00000170 <_save_all>:
     170:	37 9c ff 80 	addi sp,sp,-128
     174:	5b 81 00 04 	sw (sp+4),r1
     178:	5b 82 00 08 	sw (sp+8),r2
     17c:	5b 83 00 0c 	sw (sp+12),r3
     180:	5b 84 00 10 	sw (sp+16),r4
     184:	5b 85 00 14 	sw (sp+20),r5
     188:	5b 86 00 18 	sw (sp+24),r6
     18c:	5b 87 00 1c 	sw (sp+28),r7
     190:	5b 88 00 20 	sw (sp+32),r8
     194:	5b 89 00 24 	sw (sp+36),r9
     198:	5b 8a 00 28 	sw (sp+40),r10
     19c:	5b 9e 00 78 	sw (sp+120),ea
     1a0:	5b 9f 00 7c 	sw (sp+124),ba
     1a4:	2b 81 00 80 	lw r1,(sp+128)
     1a8:	5b 81 00 74 	sw (sp+116),r1
     1ac:	bb 80 08 00 	mv r1,sp
     1b0:	34 21 00 80 	addi r1,r1,128
     1b4:	5b 81 00 70 	sw (sp+112),r1
     1b8:	c3 a0 00 00 	ret

000001bc <_restore_all_and_eret>:
     1bc:	2b 81 00 04 	lw r1,(sp+4)
     1c0:	2b 82 00 08 	lw r2,(sp+8)
     1c4:	2b 83 00 0c 	lw r3,(sp+12)
     1c8:	2b 84 00 10 	lw r4,(sp+16)
     1cc:	2b 85 00 14 	lw r5,(sp+20)
     1d0:	2b 86 00 18 	lw r6,(sp+24)
     1d4:	2b 87 00 1c 	lw r7,(sp+28)
     1d8:	2b 88 00 20 	lw r8,(sp+32)
     1dc:	2b 89 00 24 	lw r9,(sp+36)
     1e0:	2b 8a 00 28 	lw r10,(sp+40)
     1e4:	2b 9d 00 74 	lw ra,(sp+116)
     1e8:	2b 9e 00 78 	lw ea,(sp+120)
     1ec:	2b 9f 00 7c 	lw ba,(sp+124)
     1f0:	2b 9c 00 70 	lw sp,(sp+112)
     1f4:	c3 c0 00 00 	eret

000001f8 <get_sp>:
     1f8:	bb 80 08 00 	mv r1,sp
     1fc:	c3 a0 00 00 	ret

00000200 <get_gp>:
     200:	bb 40 08 00 	mv r1,gp
     204:	c3 a0 00 00 	ret

00000208 <main>:

#include "soc-hw.h"
#include "softfloat.h"

int main(){
     208:	37 9c ff f4 	addi sp,sp,-12
     20c:	5b 8b 00 0c 	sw (sp+12),r11
     210:	5b 8c 00 08 	sw (sp+8),r12
     214:	5b 9d 00 04 	sw (sp+4),ra
//
    volatile unsigned int     *data32;
    data32 = (volatile unsigned int   *)(0x70000000);
    data32++;
    *data32 = PI;
     218:	78 02 70 00 	mvhi r2,0x7000
     21c:	78 01 40 49 	mvhi r1,0x4049
     220:	38 42 00 04 	ori r2,r2,0x4
     224:	38 21 0f d8 	ori r1,r1,0xfd8
     228:	58 41 00 00 	sw (r2+0),r1
    
    // Init Commands
    uart_init();
     22c:	f8 00 00 cf 	calli 568 <uart_init>
    isr_init();
     230:	f8 00 00 7a 	calli 418 <isr_init>
    //tic_init();
    irq_set_mask( 0x00000002 );
     234:	34 01 00 02 	mvi r1,2
     238:	fb ff ff c8 	calli 158 <irq_set_mask>
    irq_enable();
     23c:	fb ff ff c1 	calli 140 <irq_enable>
    basicIO_init();
     240:	f8 00 00 eb 	calli 5ec <basicIO_init>

    // BasicIO
    //uart_putstr( "** BasicIO **\n" );
    
    basicIO_leds(0b01010101);
     244:	34 01 00 55 	mvi r1,85
     248:	f8 00 01 09 	calli 66c <basicIO_leds>
    msleep(200);
     24c:	34 01 00 c8 	mvi r1,200
     250:	f8 00 00 89 	calli 474 <msleep>
    basicIO_leds(0b10101010);
     254:	34 01 00 aa 	mvi r1,170
     258:	f8 00 01 05 	calli 66c <basicIO_leds>
    msleep(200);
     25c:	34 01 00 c8 	mvi r1,200
     260:	f8 00 00 85 	calli 474 <msleep>
    basicIO_leds(0b01010101);
     264:	34 01 00 55 	mvi r1,85
     268:	f8 00 01 01 	calli 66c <basicIO_leds>
    msleep(200);
     26c:	34 01 00 c8 	mvi r1,200
     270:	f8 00 00 81 	calli 474 <msleep>
    basicIO_leds(0b10101010);
     274:	34 01 00 aa 	mvi r1,170
     278:	f8 00 00 fd 	calli 66c <basicIO_leds>
    msleep(200);
     27c:	34 01 00 c8 	mvi r1,200
     280:	f8 00 00 7d 	calli 474 <msleep>
     284:	34 0b 00 00 	mvi r11,0
        msleep(20);
        basicIO_leds(0x02);
        msleep(20);
        basicIO_leds(0x04);
        msleep(20);
        basicIO_leds(0x08);
     288:	34 0c 00 08 	mvi r12,8


    
    uint8_t i;
    for(i=0;i<8;i++){
        basicIO_leds(0x01); //COnvertir a binario
     28c:	34 01 00 01 	mvi r1,1
     290:	f8 00 00 f7 	calli 66c <basicIO_leds>
        msleep(20);
     294:	34 01 00 14 	mvi r1,20
     298:	f8 00 00 77 	calli 474 <msleep>
        basicIO_leds(0x02);
     29c:	34 01 00 02 	mvi r1,2
     2a0:	f8 00 00 f3 	calli 66c <basicIO_leds>
        msleep(20);
     2a4:	34 01 00 14 	mvi r1,20
     2a8:	f8 00 00 73 	calli 474 <msleep>
        basicIO_leds(0x04);
     2ac:	34 01 00 04 	mvi r1,4
     2b0:	f8 00 00 ef 	calli 66c <basicIO_leds>
        msleep(20);
     2b4:	34 01 00 14 	mvi r1,20
     2b8:	f8 00 00 6f 	calli 474 <msleep>
        basicIO_leds(0x08);
     2bc:	34 01 00 08 	mvi r1,8
     2c0:	f8 00 00 eb 	calli 66c <basicIO_leds>
        msleep(20);
     2c4:	34 01 00 14 	mvi r1,20
     2c8:	f8 00 00 6b 	calli 474 <msleep>
        basicIO_leds(0x10);
     2cc:	34 01 00 10 	mvi r1,16
     2d0:	f8 00 00 e7 	calli 66c <basicIO_leds>
        msleep(20);
     2d4:	34 01 00 14 	mvi r1,20
     2d8:	f8 00 00 67 	calli 474 <msleep>
        basicIO_leds(0x20);
     2dc:	34 01 00 20 	mvi r1,32
     2e0:	f8 00 00 e3 	calli 66c <basicIO_leds>
        msleep(20);
     2e4:	34 01 00 14 	mvi r1,20
     2e8:	f8 00 00 63 	calli 474 <msleep>
        basicIO_leds(0x40);
     2ec:	34 01 00 40 	mvi r1,64
     2f0:	f8 00 00 df 	calli 66c <basicIO_leds>
        msleep(20);
     2f4:	34 01 00 14 	mvi r1,20
     2f8:	f8 00 00 5f 	calli 474 <msleep>
        basicIO_leds(0x80);
     2fc:	34 01 00 80 	mvi r1,128
     300:	f8 00 00 db 	calli 66c <basicIO_leds>
        msleep(20);
     304:	34 01 00 14 	mvi r1,20
     308:	f8 00 00 5b 	calli 474 <msleep>
        
        basicIO_leds(0x80);
     30c:	34 01 00 80 	mvi r1,128
     310:	f8 00 00 d7 	calli 66c <basicIO_leds>
        msleep(20);
     314:	34 01 00 14 	mvi r1,20
     318:	f8 00 00 57 	calli 474 <msleep>
        basicIO_leds(0x40);
     31c:	34 01 00 40 	mvi r1,64
     320:	f8 00 00 d3 	calli 66c <basicIO_leds>
        msleep(20);
     324:	34 01 00 14 	mvi r1,20
     328:	f8 00 00 53 	calli 474 <msleep>
        basicIO_leds(0x20);
     32c:	34 01 00 20 	mvi r1,32
     330:	f8 00 00 cf 	calli 66c <basicIO_leds>
        msleep(20);
     334:	34 01 00 14 	mvi r1,20
     338:	f8 00 00 4f 	calli 474 <msleep>
        basicIO_leds(0x10);
     33c:	34 01 00 10 	mvi r1,16
     340:	f8 00 00 cb 	calli 66c <basicIO_leds>
        msleep(20);
     344:	34 01 00 14 	mvi r1,20
     348:	f8 00 00 4b 	calli 474 <msleep>
        basicIO_leds(0x08);
     34c:	34 01 00 08 	mvi r1,8
     350:	f8 00 00 c7 	calli 66c <basicIO_leds>
        msleep(20);
     354:	34 01 00 14 	mvi r1,20
     358:	f8 00 00 47 	calli 474 <msleep>
        basicIO_leds(0x04);
     35c:	34 01 00 04 	mvi r1,4
     360:	f8 00 00 c3 	calli 66c <basicIO_leds>
        msleep(20);
     364:	34 01 00 14 	mvi r1,20
     368:	f8 00 00 43 	calli 474 <msleep>
        basicIO_leds(0x02);
     36c:	34 01 00 02 	mvi r1,2
     370:	f8 00 00 bf 	calli 66c <basicIO_leds>
        msleep(20);
     374:	34 01 00 14 	mvi r1,20
     378:	f8 00 00 3f 	calli 474 <msleep>
        basicIO_leds(0x01);
     37c:	34 01 00 01 	mvi r1,1
     380:	f8 00 00 bb 	calli 66c <basicIO_leds>
        msleep(20);
     384:	34 01 00 14 	mvi r1,20
     388:	f8 00 00 3b 	calli 474 <msleep>
    msleep(200);


    
    uint8_t i;
    for(i=0;i<8;i++){
     38c:	35 61 00 01 	addi r1,r11,1
     390:	20 2b 00 ff 	andi r11,r1,0xff
     394:	5d 6c ff be 	bne r11,r12,28c <main+0x84>
        basicIO_leds(0x01);
        msleep(20);
    }
    
    return 0;
}
     398:	34 01 00 00 	mvi r1,0
     39c:	2b 9d 00 04 	lw ra,(sp+4)
     3a0:	2b 8b 00 0c 	lw r11,(sp+12)
     3a4:	2b 8c 00 08 	lw r12,(sp+8)
     3a8:	37 9c 00 0c 	addi sp,sp,12
     3ac:	c3 a0 00 00 	ret

000003b0 <isr_null>:
void tic_isr();
/***************************************************************************
 * IRQ handling
 */
void isr_null()
{
     3b0:	c3 a0 00 00 	ret

000003b4 <irq_handler>:
}

void irq_handler(uint32_t pending)
{
     3b4:	37 9c ff f0 	addi sp,sp,-16
     3b8:	5b 8b 00 10 	sw (sp+16),r11
     3bc:	5b 8c 00 0c 	sw (sp+12),r12
     3c0:	5b 8d 00 08 	sw (sp+8),r13
     3c4:	5b 9d 00 04 	sw (sp+4),ra
     3c8:	78 0b 00 00 	mvhi r11,0x0
     3cc:	39 6b 28 f4 	ori r11,r11,0x28f4
     3d0:	b8 20 60 00 	mv r12,r1
     3d4:	35 6d 00 80 	addi r13,r11,128
     3d8:	e0 00 00 03 	bi 3e4 <irq_handler+0x30>
    int i;

    for(i=0; i<32; i++) {
        if (pending & 0x01) (*isr_table[i])();
     3dc:	35 6b 00 04 	addi r11,r11,4

void irq_handler(uint32_t pending)
{
    int i;

    for(i=0; i<32; i++) {
     3e0:	45 6d 00 08 	be r11,r13,400 <irq_handler+0x4c>
        if (pending & 0x01) (*isr_table[i])();
     3e4:	21 81 00 01 	andi r1,r12,0x1
        pending >>= 1;
     3e8:	01 8c 00 01 	srui r12,r12,1
void irq_handler(uint32_t pending)
{
    int i;

    for(i=0; i<32; i++) {
        if (pending & 0x01) (*isr_table[i])();
     3ec:	44 20 ff fc 	be r1,r0,3dc <irq_handler+0x28>
     3f0:	29 61 00 00 	lw r1,(r11+0)
     3f4:	35 6b 00 04 	addi r11,r11,4
     3f8:	d8 20 00 00 	call r1

void irq_handler(uint32_t pending)
{
    int i;

    for(i=0; i<32; i++) {
     3fc:	5d 6d ff fa 	bne r11,r13,3e4 <irq_handler+0x30>
        if (pending & 0x01) (*isr_table[i])();
        pending >>= 1;
    }
}
     400:	2b 9d 00 04 	lw ra,(sp+4)
     404:	2b 8b 00 10 	lw r11,(sp+16)
     408:	2b 8c 00 0c 	lw r12,(sp+12)
     40c:	2b 8d 00 08 	lw r13,(sp+8)
     410:	37 9c 00 10 	addi sp,sp,16
     414:	c3 a0 00 00 	ret

00000418 <isr_init>:

void isr_init()
{
     418:	78 01 00 00 	mvhi r1,0x0
     41c:	38 21 28 f4 	ori r1,r1,0x28f4
     420:	78 02 00 00 	mvhi r2,0x0
     424:	38 42 03 b0 	ori r2,r2,0x3b0
     428:	34 23 00 80 	addi r3,r1,128
    int i;
    for(i=0; i<32; i++)
        isr_table[i] = &isr_null;
     42c:	58 22 00 00 	sw (r1+0),r2
     430:	34 21 00 04 	addi r1,r1,4
}

void isr_init()
{
    int i;
    for(i=0; i<32; i++)
     434:	5c 23 ff fe 	bne r1,r3,42c <isr_init+0x14>
        isr_table[i] = &isr_null;
}
     438:	c3 a0 00 00 	ret

0000043c <isr_register>:

void isr_register(int irq, isr_ptr_t isr)
{
     43c:	3c 21 00 02 	sli r1,r1,2
     440:	78 03 00 00 	mvhi r3,0x0
     444:	38 63 28 f4 	ori r3,r3,0x28f4
     448:	b4 61 18 00 	add r3,r3,r1
     44c:	58 62 00 00 	sw (r3+0),r2
    isr_table[irq] = isr;
}
     450:	c3 a0 00 00 	ret

00000454 <isr_unregister>:

void isr_unregister(int irq)
{
     454:	3c 21 00 02 	sli r1,r1,2
     458:	78 03 00 00 	mvhi r3,0x0
     45c:	38 63 28 f4 	ori r3,r3,0x28f4
     460:	78 02 00 00 	mvhi r2,0x0
     464:	b4 61 18 00 	add r3,r3,r1
     468:	38 42 03 b0 	ori r2,r2,0x3b0
     46c:	58 62 00 00 	sw (r3+0),r2
    isr_table[irq] = &isr_null;
}
     470:	c3 a0 00 00 	ret

00000474 <msleep>:
 * TIMER Functions
 */
uint32_t tic_msec;

void msleep(uint32_t msec)
{
     474:	78 03 00 00 	mvhi r3,0x0
     478:	78 02 00 01 	mvhi r2,0x1
     47c:	38 42 86 a0 	ori r2,r2,0x86a0
     480:	38 63 28 d4 	ori r3,r3,0x28d4
     484:	88 22 08 00 	mul r1,r1,r2
     488:	28 63 00 00 	lw r3,(r3+0)
    uint32_t tcr;

    // Use timer0.1
    timer0->compare1 = (FCPU/1000)*msec;
    timer0->counter1 = 0;
    timer0->tcr1 = TIMER_EN;
     48c:	34 02 00 08 	mvi r2,8
void msleep(uint32_t msec)
{
    uint32_t tcr;

    // Use timer0.1
    timer0->compare1 = (FCPU/1000)*msec;
     490:	58 61 00 10 	sw (r3+16),r1
    timer0->counter1 = 0;
     494:	34 01 00 00 	mvi r1,0
     498:	58 61 00 14 	sw (r3+20),r1
    timer0->tcr1 = TIMER_EN;
     49c:	58 62 00 0c 	sw (r3+12),r2

    do {
        //halt();
         tcr = timer0->tcr1;
     4a0:	28 61 00 0c 	lw r1,(r3+12)
     } while ( ! (tcr & TIMER_TRIG) );
     4a4:	20 21 00 01 	andi r1,r1,0x1
     4a8:	44 20 ff fe 	be r1,r0,4a0 <msleep+0x2c>
}
     4ac:	c3 a0 00 00 	ret

000004b0 <nsleep>:

void nsleep(uint32_t nsec)
{
     4b0:	b4 21 10 00 	add r2,r1,r1
     4b4:	b4 41 10 00 	add r2,r2,r1
     4b8:	78 03 00 00 	mvhi r3,0x0
     4bc:	38 63 28 d4 	ori r3,r3,0x28d4
     4c0:	3c 44 00 05 	sli r4,r2,5
     4c4:	28 63 00 00 	lw r3,(r3+0)
     4c8:	b4 44 10 00 	add r2,r2,r4
     4cc:	b4 41 10 00 	add r2,r2,r1
     4d0:	58 62 00 10 	sw (r3+16),r2
    uint32_t tcr;

    // Use timer0.1
    timer0->compare1 = (FCPU/1000000)*nsec;
    timer0->counter1 = 0;
     4d4:	34 01 00 00 	mvi r1,0
     4d8:	58 61 00 14 	sw (r3+20),r1
    timer0->tcr1 = TIMER_EN;
     4dc:	34 02 00 08 	mvi r2,8
     4e0:	58 62 00 0c 	sw (r3+12),r2

    do {
        //halt();
         tcr = timer0->tcr1;
     4e4:	28 61 00 0c 	lw r1,(r3+12)
     } while ( ! (tcr & TIMER_TRIG) );
     4e8:	20 21 00 01 	andi r1,r1,0x1
     4ec:	44 20 ff fe 	be r1,r0,4e4 <nsleep+0x34>
}
     4f0:	c3 a0 00 00 	ret

000004f4 <tic_isr>:

void tic_isr()
{
     4f4:	78 03 00 00 	mvhi r3,0x0
     4f8:	38 63 29 74 	ori r3,r3,0x2974
     4fc:	28 62 00 00 	lw r2,(r3+0)
    tic_msec++;
    timer0->tcr0     = TIMER_EN | TIMER_AR | TIMER_IRQEN;
     500:	78 01 00 00 	mvhi r1,0x0
     504:	38 21 28 d4 	ori r1,r1,0x28d4
     508:	28 24 00 00 	lw r4,(r1+0)
     } while ( ! (tcr & TIMER_TRIG) );
}

void tic_isr()
{
    tic_msec++;
     50c:	34 42 00 01 	addi r2,r2,1
     510:	58 62 00 00 	sw (r3+0),r2
    timer0->tcr0     = TIMER_EN | TIMER_AR | TIMER_IRQEN;
     514:	34 01 00 0e 	mvi r1,14
     518:	58 81 00 00 	sw (r4+0),r1
}
     51c:	c3 a0 00 00 	ret

00000520 <tic_init>:

void tic_init()
{
     520:	78 01 00 00 	mvhi r1,0x0
     524:	38 21 28 d4 	ori r1,r1,0x28d4
     528:	28 24 00 00 	lw r4,(r1+0)
    tic_msec = 0;
     52c:	78 02 00 00 	mvhi r2,0x0
     530:	38 42 29 74 	ori r2,r2,0x2974
     534:	34 05 00 00 	mvi r5,0
     538:	58 45 00 00 	sw (r2+0),r5

    // Setup timer0.0
    timer0->compare0 = (FCPU/10000);
     53c:	34 01 27 10 	mvi r1,10000
     540:	58 81 00 04 	sw (r4+4),r1
        isr_table[i] = &isr_null;
}

void isr_register(int irq, isr_ptr_t isr)
{
    isr_table[irq] = isr;
     544:	78 03 00 00 	mvhi r3,0x0
     548:	78 02 00 00 	mvhi r2,0x0
{
    tic_msec = 0;

    // Setup timer0.0
    timer0->compare0 = (FCPU/10000);
    timer0->counter0 = 0;
     54c:	58 85 00 08 	sw (r4+8),r5
        isr_table[i] = &isr_null;
}

void isr_register(int irq, isr_ptr_t isr)
{
    isr_table[irq] = isr;
     550:	38 63 28 f4 	ori r3,r3,0x28f4
     554:	38 42 04 f4 	ori r2,r2,0x4f4
    tic_msec = 0;

    // Setup timer0.0
    timer0->compare0 = (FCPU/10000);
    timer0->counter0 = 0;
    timer0->tcr0     = TIMER_EN | TIMER_AR | TIMER_IRQEN;
     558:	34 01 00 0e 	mvi r1,14
     55c:	58 81 00 00 	sw (r4+0),r1
        isr_table[i] = &isr_null;
}

void isr_register(int irq, isr_ptr_t isr)
{
    isr_table[irq] = isr;
     560:	58 62 00 04 	sw (r3+4),r2
    timer0->compare0 = (FCPU/10000);
    timer0->counter0 = 0;
    timer0->tcr0     = TIMER_EN | TIMER_AR | TIMER_IRQEN;

    isr_register(1, &tic_isr);
}
     564:	c3 a0 00 00 	ret

00000568 <uart_init>:

/***************************************************************************
 * UART Functions
 */
void uart_init()
{
     568:	c3 a0 00 00 	ret

0000056c <uart_getchar>:
    // Setup Divisor register (Fclk / Baud)
    //uart0->div = (FCPU/(57600*16));
}

char uart_getchar()
{   
     56c:	78 01 00 00 	mvhi r1,0x0
     570:	38 21 28 d0 	ori r1,r1,0x28d0
     574:	28 22 00 00 	lw r2,(r1+0)
     578:	28 41 00 00 	lw r1,(r2+0)
     57c:	20 21 00 01 	andi r1,r1,0x1
     580:	44 20 ff fe 	be r1,r0,578 <uart_getchar+0xc>
    while (! (uart0->ucr & UART_DR)) ;
    return uart0->rxtx;
     584:	28 41 00 04 	lw r1,(r2+4)
}
     588:	20 21 00 ff 	andi r1,r1,0xff
     58c:	c3 a0 00 00 	ret

00000590 <uart_putchar>:

void uart_putchar(char c)
{
     590:	78 02 00 00 	mvhi r2,0x0
     594:	38 42 28 d0 	ori r2,r2,0x28d0
     598:	28 42 00 00 	lw r2,(r2+0)
     59c:	20 23 00 ff 	andi r3,r1,0xff
    while (uart0->ucr & UART_BUSY) ;
     5a0:	28 41 00 00 	lw r1,(r2+0)
     5a4:	20 21 00 10 	andi r1,r1,0x10
     5a8:	5c 20 ff fe 	bne r1,r0,5a0 <uart_putchar+0x10>
    uart0->rxtx = c;
     5ac:	58 43 00 04 	sw (r2+4),r3
}
     5b0:	c3 a0 00 00 	ret

000005b4 <uart_putstr>:

void uart_putstr(char *str)
{
     5b4:	40 24 00 00 	lbu r4,(r1+0)
     5b8:	b8 20 18 00 	mv r3,r1
    char *c = str;
    while(*c) {
     5bc:	44 80 00 0b 	be r4,r0,5e8 <uart_putstr+0x34>
    return uart0->rxtx;
}

void uart_putchar(char c)
{
    while (uart0->ucr & UART_BUSY) ;
     5c0:	78 01 00 00 	mvhi r1,0x0
     5c4:	38 21 28 d0 	ori r1,r1,0x28d0
     5c8:	28 22 00 00 	lw r2,(r1+0)
     5cc:	28 41 00 00 	lw r1,(r2+0)
     5d0:	20 21 00 10 	andi r1,r1,0x10
     5d4:	5c 20 ff fe 	bne r1,r0,5cc <uart_putstr+0x18>
    uart0->rxtx = c;
     5d8:	58 44 00 04 	sw (r2+4),r4
void uart_putstr(char *str)
{
    char *c = str;
    while(*c) {
        uart_putchar(*c);
        c++;
     5dc:	34 63 00 01 	addi r3,r3,1
}

void uart_putstr(char *str)
{
    char *c = str;
    while(*c) {
     5e0:	40 64 00 00 	lbu r4,(r3+0)
     5e4:	5c 81 ff fa 	bne r4,r1,5cc <uart_putstr+0x18>
     5e8:	c3 a0 00 00 	ret

000005ec <basicIO_init>:
 * BasicIO Functions
 */
static uint32_t leds;

void basicIO_init()
{
     5ec:	78 01 00 00 	mvhi r1,0x0
     5f0:	38 21 28 e0 	ori r1,r1,0x28e0
     5f4:	28 23 00 00 	lw r3,(r1+0)
     5f8:	34 02 00 00 	mvi r2,0
  //LEDs off
  basicIO0->leds = 0;
  leds = 0;
     5fc:	78 01 00 00 	mvhi r1,0x0
static uint32_t leds;

void basicIO_init()
{
  //LEDs off
  basicIO0->leds = 0;
     600:	58 62 00 00 	sw (r3+0),r2
  leds = 0;
     604:	38 21 28 e4 	ori r1,r1,0x28e4
     608:	58 22 00 00 	sw (r1+0),r2
}
     60c:	c3 a0 00 00 	ret

00000610 <basicIO_leds_on>:

void basicIO_leds_on(uint8_t leds_on)
{
     610:	78 03 00 00 	mvhi r3,0x0
     614:	38 63 28 e4 	ori r3,r3,0x28e4
     618:	28 65 00 00 	lw r5,(r3+0)
  //LEDs on
  leds |= leds_on;
  basicIO0->leds = leds;
     61c:	78 02 00 00 	mvhi r2,0x0
     620:	38 42 28 e0 	ori r2,r2,0x28e0
  basicIO0->leds = 0;
  leds = 0;
}

void basicIO_leds_on(uint8_t leds_on)
{
     624:	20 21 00 ff 	andi r1,r1,0xff
  //LEDs on
  leds |= leds_on;
  basicIO0->leds = leds;
     628:	28 44 00 00 	lw r4,(r2+0)
}

void basicIO_leds_on(uint8_t leds_on)
{
  //LEDs on
  leds |= leds_on;
     62c:	b8 25 08 00 	or r1,r1,r5
     630:	58 61 00 00 	sw (r3+0),r1
  basicIO0->leds = leds;
     634:	58 81 00 00 	sw (r4+0),r1
}
     638:	c3 a0 00 00 	ret

0000063c <basicIO_leds_off>:

void basicIO_leds_off(uint8_t leds_off)
{
     63c:	78 03 00 00 	mvhi r3,0x0
     640:	38 63 28 e4 	ori r3,r3,0x28e4
     644:	28 65 00 00 	lw r5,(r3+0)
  //LEDs off
  leds &= ~leds_off;
  basicIO0->leds = leds;
     648:	78 02 00 00 	mvhi r2,0x0
  leds |= leds_on;
  basicIO0->leds = leds;
}

void basicIO_leds_off(uint8_t leds_off)
{
     64c:	20 21 00 ff 	andi r1,r1,0xff
  //LEDs off
  leds &= ~leds_off;
  basicIO0->leds = leds;
     650:	38 42 28 e0 	ori r2,r2,0x28e0
}

void basicIO_leds_off(uint8_t leds_off)
{
  //LEDs off
  leds &= ~leds_off;
     654:	a4 20 08 00 	not r1,r1
  basicIO0->leds = leds;
     658:	28 44 00 00 	lw r4,(r2+0)
}

void basicIO_leds_off(uint8_t leds_off)
{
  //LEDs off
  leds &= ~leds_off;
     65c:	a0 25 08 00 	and r1,r1,r5
     660:	58 61 00 00 	sw (r3+0),r1
  basicIO0->leds = leds;
     664:	58 81 00 00 	sw (r4+0),r1
}
     668:	c3 a0 00 00 	ret

0000066c <basicIO_leds>:

void basicIO_leds(uint8_t leds0)
{
     66c:	78 02 00 00 	mvhi r2,0x0
     670:	38 42 28 e0 	ori r2,r2,0x28e0
     674:	28 44 00 00 	lw r4,(r2+0)
  //LEDs
  leds = leds0; //coge lo que le llega a la funcion y lo manda a los leds
     678:	78 03 00 00 	mvhi r3,0x0
  leds &= ~leds_off;
  basicIO0->leds = leds;
}

void basicIO_leds(uint8_t leds0)
{
     67c:	20 21 00 ff 	andi r1,r1,0xff
  //LEDs
  leds = leds0; //coge lo que le llega a la funcion y lo manda a los leds
     680:	38 63 28 e4 	ori r3,r3,0x28e4
     684:	58 61 00 00 	sw (r3+0),r1
  basicIO0->leds = leds0;
     688:	58 81 00 00 	sw (r4+0),r1
}
     68c:	c3 a0 00 00 	ret

00000690 <estimateDiv64To32>:
the exact quotient q is larger than 32 bits, the maximum positive 32-bit
unsigned integer is returned.
-------------------------------------------------------------------------------
*/
static bits32 estimateDiv64To32( bits32 a0, bits32 a1, bits32 b )
{
     690:	37 9c ff f0 	addi sp,sp,-16
     694:	5b 8b 00 10 	sw (sp+16),r11
     698:	5b 8c 00 0c 	sw (sp+12),r12
     69c:	5b 8d 00 08 	sw (sp+8),r13
     6a0:	5b 8e 00 04 	sw (sp+4),r14
     6a4:	b8 20 38 00 	mv r7,r1
     6a8:	b8 60 60 00 	mv r12,r3
     6ac:	b8 40 68 00 	mv r13,r2
    bits32 b0, b1;
    bits32 rem0, rem1, term0, term1;
    bits32 z;

    if ( b <= a0 ) return 0xFFFFFFFF;
     6b0:	54 61 00 08 	bgu r3,r1,6d0 <estimateDiv64To32+0x40>
     6b4:	34 01 ff ff 	mvi r1,-1
    }
    rem0 = ( rem0<<16 ) | ( rem1>>16 );
    z |= ( b0<<16 <= rem0 ) ? 0xFFFF : rem0 / b0;
    return z;

}
     6b8:	2b 8b 00 10 	lw r11,(sp+16)
     6bc:	2b 8c 00 0c 	lw r12,(sp+12)
     6c0:	2b 8d 00 08 	lw r13,(sp+8)
     6c4:	2b 8e 00 04 	lw r14,(sp+4)
     6c8:	37 9c 00 10 	addi sp,sp,16
     6cc:	c3 a0 00 00 	ret
    bits32 b0, b1;
    bits32 rem0, rem1, term0, term1;
    bits32 z;

    if ( b <= a0 ) return 0xFFFFFFFF;
    b0 = b>>16;
     6d0:	00 69 00 10 	srui r9,r3,16
    z = ( b0<<16 <= a0 ) ? 0xFFFF0000 : ( a0 / b0 )<<16;
     6d4:	3d 2e 00 10 	sli r14,r9,16
     6d8:	55 c1 00 2f 	bgu r14,r1,794 <estimateDiv64To32+0x104>
    aLow = a;
    aHigh = a>>16;
    bLow = b;
    bHigh = b>>16;
    z1 = ( (bits32) aLow ) * bLow;
    zMiddleA = ( (bits32) aLow ) * bHigh;
     6dc:	20 61 ff ff 	andi r1,r3,0xffff
     6e0:	3c 22 00 10 	sli r2,r1,16
     6e4:	34 0b 00 00 	mvi r11,0
     6e8:	78 08 ff ff 	mvhi r8,0xffff
     6ec:	c8 41 28 00 	sub r5,r2,r1
     6f0:	39 08 00 00 	ori r8,r8,0x0
    bits32 rem0, rem1, term0, term1;
    bits32 z;

    if ( b <= a0 ) return 0xFFFFFFFF;
    b0 = b>>16;
    z = ( b0<<16 <= a0 ) ? 0xFFFF0000 : ( a0 / b0 )<<16;
     6f4:	21 2a ff ff 	andi r10,r9,0xffff
    aLow = a;
    aHigh = a>>16;
    bLow = b;
    bHigh = b>>16;
    z1 = ( (bits32) aLow ) * bLow;
    zMiddleA = ( (bits32) aLow ) * bHigh;
     6f8:	b9 60 20 00 	mv r4,r11
     6fc:	38 06 ff ff 	mvu r6,0xffff
    zMiddleB = ( (bits32) aHigh ) * bLow;
    z0 = ( (bits32) aHigh ) * bHigh;
    zMiddleA += zMiddleB;
    z0 += ( ( (bits32) ( zMiddleA < zMiddleB ) )<<16 ) + ( zMiddleA>>16 );
    zMiddleA <<= 16;
     700:	3c a2 00 10 	sli r2,r5,16
    z1 = ( (bits32) aLow ) * bLow;
    zMiddleA = ( (bits32) aLow ) * bHigh;
    zMiddleB = ( (bits32) aHigh ) * bLow;
    z0 = ( (bits32) aHigh ) * bHigh;
    zMiddleA += zMiddleB;
    z0 += ( ( (bits32) ( zMiddleA < zMiddleB ) )<<16 ) + ( zMiddleA>>16 );
     704:	89 46 08 00 	mul r1,r10,r6
    zMiddleA <<= 16;
    z1 += zMiddleA;
     708:	b4 44 18 00 	add r3,r2,r4
    z1 = ( (bits32) aLow ) * bLow;
    zMiddleA = ( (bits32) aLow ) * bHigh;
    zMiddleB = ( (bits32) aHigh ) * bLow;
    z0 = ( (bits32) aHigh ) * bHigh;
    zMiddleA += zMiddleB;
    z0 += ( ( (bits32) ( zMiddleA < zMiddleB ) )<<16 ) + ( zMiddleA>>16 );
     70c:	00 a5 00 10 	srui r5,r5,16
 sub64(
     bits32 a0, bits32 a1, bits32 b0, bits32 b1, bits32 *z0Ptr, bits32 *z1Ptr )
{

    *z1Ptr = a1 - b1;
    *z0Ptr = a0 - b0 - ( a1 < b1 );
     710:	f4 43 10 00 	cmpgu r2,r2,r3
    z1 = ( (bits32) aLow ) * bLow;
    zMiddleA = ( (bits32) aLow ) * bHigh;
    zMiddleB = ( (bits32) aHigh ) * bLow;
    z0 = ( (bits32) aHigh ) * bHigh;
    zMiddleA += zMiddleB;
    z0 += ( ( (bits32) ( zMiddleA < zMiddleB ) )<<16 ) + ( zMiddleA>>16 );
     714:	c8 e1 08 00 	sub r1,r7,r1
     718:	c8 25 08 00 	sub r1,r1,r5
 sub64(
     bits32 a0, bits32 a1, bits32 b0, bits32 b1, bits32 *z0Ptr, bits32 *z1Ptr )
{

    *z1Ptr = a1 - b1;
    *z0Ptr = a0 - b0 - ( a1 < b1 );
     71c:	f4 6d 20 00 	cmpgu r4,r3,r13
     720:	c8 22 08 00 	sub r1,r1,r2
     724:	c8 24 08 00 	sub r1,r1,r4
     728:	c8 2b 28 00 	sub r5,r1,r11
INLINE void
 sub64(
     bits32 a0, bits32 a1, bits32 b0, bits32 b1, bits32 *z0Ptr, bits32 *z1Ptr )
{

    *z1Ptr = a1 - b1;
     72c:	c9 a3 10 00 	sub r2,r13,r3
    if ( b <= a0 ) return 0xFFFFFFFF;
    b0 = b>>16;
    z = ( b0<<16 <= a0 ) ? 0xFFFF0000 : ( a0 / b0 )<<16;
    mul32To64( b, z, &term0, &term1 );
    sub64( a0, a1, term0, term1, &rem0, &rem1 );
    while ( ( (sbits32) rem0 ) < 0 ) {
     730:	4c a0 00 0d 	bge r5,r0,764 <estimateDiv64To32+0xd4>
     734:	78 07 ff ff 	mvhi r7,0xffff
     738:	3d 83 00 10 	sli r3,r12,16
        z -= 0x10000;
     73c:	38 e7 00 00 	ori r7,r7,0x0
 add64(
     bits32 a0, bits32 a1, bits32 b0, bits32 b1, bits32 *z0Ptr, bits32 *z1Ptr )
{
    bits32 z1;

    z1 = a1 + b1;
     740:	b4 43 30 00 	add r6,r2,r3
    *z1Ptr = z1;
    *z0Ptr = a0 + b0 + ( z1 < a1 );
     744:	f4 46 08 00 	cmpgu r1,r2,r6
    b0 = b>>16;
    z = ( b0<<16 <= a0 ) ? 0xFFFF0000 : ( a0 / b0 )<<16;
    mul32To64( b, z, &term0, &term1 );
    sub64( a0, a1, term0, term1, &rem0, &rem1 );
    while ( ( (sbits32) rem0 ) < 0 ) {
        z -= 0x10000;
     748:	b5 07 40 00 	add r8,r8,r7
{
    bits32 z1;

    z1 = a1 + b1;
    *z1Ptr = z1;
    *z0Ptr = a0 + b0 + ( z1 < a1 );
     74c:	b4 29 08 00 	add r1,r1,r9
     750:	b4 a1 28 00 	add r5,r5,r1
    if ( b <= a0 ) return 0xFFFFFFFF;
    b0 = b>>16;
    z = ( b0<<16 <= a0 ) ? 0xFFFF0000 : ( a0 / b0 )<<16;
    mul32To64( b, z, &term0, &term1 );
    sub64( a0, a1, term0, term1, &rem0, &rem1 );
    while ( ( (sbits32) rem0 ) < 0 ) {
     754:	b8 c0 10 00 	mv r2,r6
     758:	4c a0 00 02 	bge r5,r0,760 <estimateDiv64To32+0xd0>
     75c:	e3 ff ff f9 	bi 740 <estimateDiv64To32+0xb0>
     760:	b8 c0 10 00 	mv r2,r6
        z -= 0x10000;
        b1 = b<<16;
        add64( rem0, rem1, b0, b1, &rem0, &rem1 );
    }
    rem0 = ( rem0<<16 ) | ( rem1>>16 );
     764:	00 42 00 10 	srui r2,r2,16
     768:	3c a1 00 10 	sli r1,r5,16
     76c:	b8 41 08 00 	or r1,r2,r1
    z |= ( b0<<16 <= rem0 ) ? 0xFFFF : rem0 / b0;
     770:	55 c1 00 19 	bgu r14,r1,7d4 <estimateDiv64To32+0x144>
     774:	38 01 ff ff 	mvu r1,0xffff
     778:	b8 28 08 00 	or r1,r1,r8
    return z;

}
     77c:	2b 8b 00 10 	lw r11,(sp+16)
     780:	2b 8c 00 0c 	lw r12,(sp+12)
     784:	2b 8d 00 08 	lw r13,(sp+8)
     788:	2b 8e 00 04 	lw r14,(sp+4)
     78c:	37 9c 00 10 	addi sp,sp,16
     790:	c3 a0 00 00 	ret
    bits32 rem0, rem1, term0, term1;
    bits32 z;

    if ( b <= a0 ) return 0xFFFFFFFF;
    b0 = b>>16;
    z = ( b0<<16 <= a0 ) ? 0xFFFF0000 : ( a0 / b0 )<<16;
     794:	8c 29 08 00 	divu r1,r1,r9
     798:	20 64 ff ff 	andi r4,r3,0xffff
     79c:	3c 28 00 10 	sli r8,r1,16
     7a0:	21 2a ff ff 	andi r10,r9,0xffff
     7a4:	01 06 00 10 	srui r6,r8,16
     7a8:	21 01 ff ff 	andi r1,r8,0xffff
    aLow = a;
    aHigh = a>>16;
    bLow = b;
    bHigh = b>>16;
    z1 = ( (bits32) aLow ) * bLow;
    zMiddleA = ( (bits32) aLow ) * bHigh;
     7ac:	88 86 10 00 	mul r2,r4,r6
    bits32 rem0, rem1, term0, term1;
    bits32 z;

    if ( b <= a0 ) return 0xFFFFFFFF;
    b0 = b>>16;
    z = ( b0<<16 <= a0 ) ? 0xFFFF0000 : ( a0 / b0 )<<16;
     7b0:	88 2a 18 00 	mul r3,r1,r10
     7b4:	88 24 20 00 	mul r4,r1,r4
    bHigh = b>>16;
    z1 = ( (bits32) aLow ) * bLow;
    zMiddleA = ( (bits32) aLow ) * bHigh;
    zMiddleB = ( (bits32) aHigh ) * bLow;
    z0 = ( (bits32) aHigh ) * bHigh;
    zMiddleA += zMiddleB;
     7b8:	b4 43 28 00 	add r5,r2,r3
    z0 += ( ( (bits32) ( zMiddleA < zMiddleB ) )<<16 ) + ( zMiddleA>>16 );
     7bc:	54 65 00 03 	bgu r3,r5,7c8 <estimateDiv64To32+0x138>
     7c0:	34 0b 00 00 	mvi r11,0
     7c4:	e3 ff ff cf 	bi 700 <estimateDiv64To32+0x70>
     7c8:	78 0b 00 01 	mvhi r11,0x1
     7cc:	39 6b 00 00 	ori r11,r11,0x0
     7d0:	e3 ff ff cc 	bi 700 <estimateDiv64To32+0x70>
        z -= 0x10000;
        b1 = b<<16;
        add64( rem0, rem1, b0, b1, &rem0, &rem1 );
    }
    rem0 = ( rem0<<16 ) | ( rem1>>16 );
    z |= ( b0<<16 <= rem0 ) ? 0xFFFF : rem0 / b0;
     7d4:	8c 29 08 00 	divu r1,r1,r9
     7d8:	b8 28 08 00 	or r1,r1,r8
     7dc:	e3 ff ff e8 	bi 77c <estimateDiv64To32+0xec>

000007e0 <float_raise>:
substitute a result value.  If traps are not implemented, this routine
should be simply `float_exception_flags |= flags;'.
-------------------------------------------------------------------------------
*/
void float_raise( int8 flags )
{
     7e0:	78 02 00 00 	mvhi r2,0x0
     7e4:	38 42 28 ec 	ori r2,r2,0x28ec
     7e8:	28 43 00 00 	lw r3,(r2+0)
     7ec:	b8 23 08 00 	or r1,r1,r3
     7f0:	58 41 00 00 	sw (r2+0),r1

    float_exception_flags |= flags;

}
     7f4:	c3 a0 00 00 	ret

000007f8 <float32_is_nan>:
Returns 1 if the single-precision floating-point value `a' is a NaN;
otherwise returns 0.
-------------------------------------------------------------------------------
*/
flag float32_is_nan( float32 a )
{
     7f8:	78 02 ff 00 	mvhi r2,0xff00
     7fc:	38 42 00 00 	ori r2,r2,0x0
     800:	b4 21 08 00 	add r1,r1,r1

    return ( 0xFF000000 < (bits32) ( a<<1 ) );

}
     804:	f4 22 08 00 	cmpgu r1,r1,r2
     808:	c3 a0 00 00 	ret

0000080c <float32_is_signaling_nan>:
Returns 1 if the single-precision floating-point value `a' is a signaling
NaN; otherwise returns 0.
-------------------------------------------------------------------------------
*/
flag float32_is_signaling_nan( float32 a )
{
     80c:	b8 20 20 00 	mv r4,r1

    return ( ( ( a>>22 ) & 0x1FF ) == 0x1FE ) && ( a & 0x003FFFFF );
     810:	00 21 00 16 	srui r1,r1,22
     814:	34 02 01 fe 	mvi r2,510
     818:	20 21 01 ff 	andi r1,r1,0x1ff
     81c:	34 03 00 00 	mvi r3,0
     820:	44 22 00 03 	be r1,r2,82c <float32_is_signaling_nan+0x20>

}
     824:	b8 60 08 00 	mv r1,r3
     828:	c3 a0 00 00 	ret
-------------------------------------------------------------------------------
*/
flag float32_is_signaling_nan( float32 a )
{

    return ( ( ( a>>22 ) & 0x1FF ) == 0x1FE ) && ( a & 0x003FFFFF );
     82c:	78 01 00 3f 	mvhi r1,0x3f
     830:	38 21 ff ff 	ori r1,r1,0xffff
     834:	a0 81 08 00 	and r1,r4,r1
     838:	7c 23 00 00 	cmpnei r3,r1,0

}
     83c:	b8 60 08 00 	mv r1,r3
     840:	c3 a0 00 00 	ret

00000844 <propagateFloat32NaN>:
is a NaN, and returns the appropriate NaN result.  If either `a' or `b' is a
signaling NaN, the invalid exception is raised.
-------------------------------------------------------------------------------
*/
static float32 propagateFloat32NaN( float32 a, float32 b )
{
     844:	00 23 00 16 	srui r3,r1,22
     848:	b8 20 30 00 	mv r6,r1
-------------------------------------------------------------------------------
*/
flag float32_is_signaling_nan( float32 a )
{

    return ( ( ( a>>22 ) & 0x1FF ) == 0x1FE ) && ( a & 0x003FFFFF );
     84c:	20 63 01 ff 	andi r3,r3,0x1ff
     850:	34 01 01 fe 	mvi r1,510
is a NaN, and returns the appropriate NaN result.  If either `a' or `b' is a
signaling NaN, the invalid exception is raised.
-------------------------------------------------------------------------------
*/
static float32 propagateFloat32NaN( float32 a, float32 b )
{
     854:	b8 40 20 00 	mv r4,r2
-------------------------------------------------------------------------------
*/
flag float32_is_signaling_nan( float32 a )
{

    return ( ( ( a>>22 ) & 0x1FF ) == 0x1FE ) && ( a & 0x003FFFFF );
     858:	34 07 00 00 	mvi r7,0
     85c:	44 61 00 24 	be r3,r1,8ec <propagateFloat32NaN+0xa8>
    aIsNaN = float32_is_nan( a );
    aIsSignalingNaN = float32_is_signaling_nan( a );
    bIsNaN = float32_is_nan( b );
    bIsSignalingNaN = float32_is_signaling_nan( b );
    a |= 0x00400000;
    b |= 0x00400000;
     860:	00 81 00 16 	srui r1,r4,22
     864:	34 02 01 fe 	mvi r2,510
     868:	20 21 01 ff 	andi r1,r1,0x1ff
     86c:	34 03 00 00 	mvi r3,0
     870:	44 22 00 1a 	be r1,r2,8d8 <propagateFloat32NaN+0x94>
     874:	78 05 00 40 	mvhi r5,0x40
     878:	b8 a0 08 00 	mv r1,r5
    if ( aIsSignalingNaN | bIsSignalingNaN ) float_raise( float_flag_invalid );
     87c:	b8 67 10 00 	or r2,r3,r7
    aIsNaN = float32_is_nan( a );
    aIsSignalingNaN = float32_is_signaling_nan( a );
    bIsNaN = float32_is_nan( b );
    bIsSignalingNaN = float32_is_signaling_nan( b );
    a |= 0x00400000;
    b |= 0x00400000;
     880:	38 21 00 00 	ori r1,r1,0x0
     884:	b8 81 18 00 	or r3,r4,r1
    if ( aIsSignalingNaN | bIsSignalingNaN ) float_raise( float_flag_invalid );
     888:	44 40 00 06 	be r2,r0,8a0 <propagateFloat32NaN+0x5c>
-------------------------------------------------------------------------------
*/
void float_raise( int8 flags )
{

    float_exception_flags |= flags;
     88c:	78 02 00 00 	mvhi r2,0x0
     890:	38 42 28 ec 	ori r2,r2,0x28ec
     894:	28 41 00 00 	lw r1,(r2+0)
     898:	38 21 00 10 	ori r1,r1,0x10
     89c:	58 41 00 00 	sw (r2+0),r1
    bIsNaN = float32_is_nan( b );
    bIsSignalingNaN = float32_is_signaling_nan( b );
    a |= 0x00400000;
    b |= 0x00400000;
    if ( aIsSignalingNaN | bIsSignalingNaN ) float_raise( float_flag_invalid );
    if ( aIsNaN ) {
     8a0:	78 02 ff 00 	mvhi r2,0xff00
     8a4:	38 42 00 00 	ori r2,r2,0x0
     8a8:	b4 c6 08 00 	add r1,r6,r6
     8ac:	50 41 00 05 	bgeu r2,r1,8c0 <propagateFloat32NaN+0x7c>
        return ( aIsSignalingNaN & bIsNaN ) ? b : a;
     8b0:	b4 84 08 00 	add r1,r4,r4
     8b4:	f4 22 08 00 	cmpgu r1,r1,r2
     8b8:	a0 e1 08 00 	and r1,r7,r1
     8bc:	44 20 00 03 	be r1,r0,8c8 <propagateFloat32NaN+0x84>
    }
    else {
        return b;
    }

}
     8c0:	b8 60 08 00 	mv r1,r3
     8c4:	c3 a0 00 00 	ret

    aIsNaN = float32_is_nan( a );
    aIsSignalingNaN = float32_is_signaling_nan( a );
    bIsNaN = float32_is_nan( b );
    bIsSignalingNaN = float32_is_signaling_nan( b );
    a |= 0x00400000;
     8c8:	38 a5 00 00 	ori r5,r5,0x0
     8cc:	b8 c5 18 00 	or r3,r6,r5
    }
    else {
        return b;
    }

}
     8d0:	b8 60 08 00 	mv r1,r3
     8d4:	c3 a0 00 00 	ret
-------------------------------------------------------------------------------
*/
flag float32_is_signaling_nan( float32 a )
{

    return ( ( ( a>>22 ) & 0x1FF ) == 0x1FE ) && ( a & 0x003FFFFF );
     8d8:	78 01 00 3f 	mvhi r1,0x3f
     8dc:	38 21 ff ff 	ori r1,r1,0xffff
     8e0:	a0 81 08 00 	and r1,r4,r1
     8e4:	7c 23 00 00 	cmpnei r3,r1,0
     8e8:	e3 ff ff e3 	bi 874 <propagateFloat32NaN+0x30>
     8ec:	78 01 00 3f 	mvhi r1,0x3f
     8f0:	38 21 ff ff 	ori r1,r1,0xffff
     8f4:	a0 c1 08 00 	and r1,r6,r1
     8f8:	7c 27 00 00 	cmpnei r7,r1,0
     8fc:	e3 ff ff d9 	bi 860 <propagateFloat32NaN+0x1c>

00000900 <roundAndPackFloat32>:
The handling of underflow and overflow follows the IEC/IEEE Standard for
Binary Floating-point Arithmetic.
-------------------------------------------------------------------------------
*/
static float32 roundAndPackFloat32( flag zSign, int16 zExp, bits32 zSig )
{
     900:	78 04 00 00 	mvhi r4,0x0
     904:	38 84 28 e8 	ori r4,r4,0x28e8
     908:	28 84 00 00 	lw r4,(r4+0)
     90c:	b8 20 48 00 	mv r9,r1
     910:	b8 40 30 00 	mv r6,r2
    flag roundNearestEven;
    int8 roundIncrement, roundBits;
    flag isTiny;

    roundingMode = float_rounding_mode;
    roundNearestEven = roundingMode == float_round_nearest_even;
     914:	64 88 00 00 	cmpei r8,r4,0
The handling of underflow and overflow follows the IEC/IEEE Standard for
Binary Floating-point Arithmetic.
-------------------------------------------------------------------------------
*/
static float32 roundAndPackFloat32( flag zSign, int16 zExp, bits32 zSig )
{
     918:	b8 60 38 00 	mv r7,r3
    flag isTiny;

    roundingMode = float_rounding_mode;
    roundNearestEven = roundingMode == float_round_nearest_even;
    roundIncrement = 0x40;
    if ( ! roundNearestEven ) {
     91c:	34 05 00 40 	mvi r5,64
     920:	5d 00 00 07 	bne r8,r0,93c <roundAndPackFloat32+0x3c>
        if ( roundingMode == float_round_to_zero ) {
     924:	34 01 00 01 	mvi r1,1
     928:	44 81 00 37 	be r4,r1,a04 <roundAndPackFloat32+0x104>
            roundIncrement = 0;
        }
        else {
            roundIncrement = 0x7F;
            if ( zSign ) {
     92c:	45 28 00 34 	be r9,r8,9fc <roundAndPackFloat32+0xfc>
                if ( roundingMode == float_round_up ) roundIncrement = 0;
     930:	34 01 00 02 	mvi r1,2
     934:	44 81 00 34 	be r4,r1,a04 <roundAndPackFloat32+0x104>
            }
            else {
                if ( roundingMode == float_round_down ) roundIncrement = 0;
     938:	34 05 00 7f 	mvi r5,127
            }
        }
    }
    roundBits = zSig & 0x7F;
    if ( 0xFD <= (bits16) zExp ) {
     93c:	20 c2 ff ff 	andi r2,r6,0xffff
     940:	34 01 00 fc 	mvi r1,252
            else {
                if ( roundingMode == float_round_down ) roundIncrement = 0;
            }
        }
    }
    roundBits = zSig & 0x7F;
     944:	20 e3 00 7f 	andi r3,r7,0x7f
     948:	b4 a7 20 00 	add r4,r5,r7
    if ( 0xFD <= (bits16) zExp ) {
     94c:	50 22 00 05 	bgeu r1,r2,960 <roundAndPackFloat32+0x60>
        if (    ( 0xFD < zExp )
     950:	34 01 00 fd 	mvi r1,253
     954:	48 c1 00 1e 	bg r6,r1,9cc <roundAndPackFloat32+0xcc>
     958:	44 c1 00 1c 	be r6,r1,9c8 <roundAndPackFloat32+0xc8>
                  && ( (sbits32) ( zSig + roundIncrement ) < 0 ) )
           ) {
            float_raise( float_flag_overflow | float_flag_inexact );
            return packFloat32( zSign, 0xFF, 0 ) - ( roundIncrement == 0 );
        }
        if ( zExp < 0 ) {
     95c:	48 06 00 2c 	bg r0,r6,a0c <roundAndPackFloat32+0x10c>
            zExp = 0;
            roundBits = zSig & 0x7F;
            if ( isTiny && roundBits ) float_raise( float_flag_underflow );
        }
    }
    if ( roundBits ) float_exception_flags |= float_flag_inexact;
     960:	5c 60 00 0d 	bne r3,r0,994 <roundAndPackFloat32+0x94>
    zSig = ( zSig + roundIncrement )>>7;
    zSig &= ~ ( ( ( roundBits ^ 0x40 ) == 0 ) & roundNearestEven );
     964:	64 61 00 40 	cmpei r1,r3,64
     968:	00 82 00 07 	srui r2,r4,7
     96c:	a0 28 08 00 	and r1,r1,r8
     970:	a4 20 08 00 	not r1,r1
     974:	a0 22 10 00 	and r2,r1,r2
    if ( zSig == 0 ) zExp = 0;
     978:	3c c3 00 17 	sli r3,r6,23
     97c:	5c 40 00 02 	bne r2,r0,984 <roundAndPackFloat32+0x84>
     980:	b8 40 18 00 	mv r3,r2
significand.
-------------------------------------------------------------------------------
*/
INLINE float32 packFloat32( flag zSign, int16 zExp, bits32 zSig )
{
    return ( ( (bits32) zSign )<<31 ) + ( ( (bits32) zExp )<<23 ) + zSig;
     984:	3d 21 00 1f 	sli r1,r9,31
     988:	b4 41 08 00 	add r1,r2,r1
     98c:	b4 23 08 00 	add r1,r1,r3
    zSig = ( zSig + roundIncrement )>>7;
    zSig &= ~ ( ( ( roundBits ^ 0x40 ) == 0 ) & roundNearestEven );
    if ( zSig == 0 ) zExp = 0;
    return packFloat32( zSign, zExp, zSig );

}
     990:	c3 a0 00 00 	ret
     994:	78 02 00 00 	mvhi r2,0x0
     998:	38 42 28 ec 	ori r2,r2,0x28ec
            zExp = 0;
            roundBits = zSig & 0x7F;
            if ( isTiny && roundBits ) float_raise( float_flag_underflow );
        }
    }
    if ( roundBits ) float_exception_flags |= float_flag_inexact;
     99c:	28 41 00 00 	lw r1,(r2+0)
     9a0:	38 21 00 01 	ori r1,r1,0x1
     9a4:	58 41 00 00 	sw (r2+0),r1
    zSig = ( zSig + roundIncrement )>>7;
    zSig &= ~ ( ( ( roundBits ^ 0x40 ) == 0 ) & roundNearestEven );
     9a8:	64 61 00 40 	cmpei r1,r3,64
     9ac:	00 82 00 07 	srui r2,r4,7
     9b0:	a0 28 08 00 	and r1,r1,r8
     9b4:	a4 20 08 00 	not r1,r1
     9b8:	a0 22 10 00 	and r2,r1,r2
    if ( zSig == 0 ) zExp = 0;
     9bc:	3c c3 00 17 	sli r3,r6,23
     9c0:	5c 40 ff f1 	bne r2,r0,984 <roundAndPackFloat32+0x84>
     9c4:	e3 ff ff ef 	bi 980 <roundAndPackFloat32+0x80>
            }
        }
    }
    roundBits = zSig & 0x7F;
    if ( 0xFD <= (bits16) zExp ) {
        if (    ( 0xFD < zExp )
     9c8:	4c 80 ff e6 	bge r4,r0,960 <roundAndPackFloat32+0x60>
-------------------------------------------------------------------------------
*/
void float_raise( int8 flags )
{

    float_exception_flags |= flags;
     9cc:	78 04 00 00 	mvhi r4,0x0
     9d0:	38 84 28 ec 	ori r4,r4,0x28ec
     9d4:	28 82 00 00 	lw r2,(r4+0)
             || (    ( zExp == 0xFD )
                  && ( (sbits32) ( zSig + roundIncrement ) < 0 ) )
           ) {
            float_raise( float_flag_overflow | float_flag_inexact );
            return packFloat32( zSign, 0xFF, 0 ) - ( roundIncrement == 0 );
     9d8:	3d 23 00 1f 	sli r3,r9,31
     9dc:	78 01 7f 80 	mvhi r1,0x7f80
     9e0:	38 21 00 00 	ori r1,r1,0x0
     9e4:	64 a5 00 00 	cmpei r5,r5,0
     9e8:	b4 61 18 00 	add r3,r3,r1
     9ec:	38 42 00 09 	ori r2,r2,0x9
     9f0:	58 82 00 00 	sw (r4+0),r2
     9f4:	c8 65 08 00 	sub r1,r3,r5
     9f8:	c3 a0 00 00 	ret
            roundIncrement = 0x7F;
            if ( zSign ) {
                if ( roundingMode == float_round_up ) roundIncrement = 0;
            }
            else {
                if ( roundingMode == float_round_down ) roundIncrement = 0;
     9fc:	34 01 00 03 	mvi r1,3
     a00:	5c 81 ff ce 	bne r4,r1,938 <roundAndPackFloat32+0x38>
     a04:	34 05 00 00 	mvi r5,0
     a08:	e3 ff ff cd 	bi 93c <roundAndPackFloat32+0x3c>
           ) {
            float_raise( float_flag_overflow | float_flag_inexact );
            return packFloat32( zSign, 0xFF, 0 ) - ( roundIncrement == 0 );
        }
        if ( zExp < 0 ) {
            isTiny =
     a0c:	78 01 00 00 	mvhi r1,0x0
     a10:	38 21 28 f0 	ori r1,r1,0x28f0
     a14:	28 22 00 00 	lw r2,(r1+0)
     a18:	34 03 ff ff 	mvi r3,-1
     a1c:	e8 66 18 00 	cmpg r3,r3,r6
     a20:	64 42 00 01 	cmpei r2,r2,1
     a24:	34 0a 00 01 	mvi r10,1
     a28:	b8 43 10 00 	or r2,r2,r3
     a2c:	5c 40 00 02 	bne r2,r0,a34 <roundAndPackFloat32+0x134>
     a30:	6c 8a 00 00 	cmpgei r10,r4,0
                   ( float_detect_tininess == float_tininess_before_rounding )
                || ( zExp < -1 )
                || ( zSig + roundIncrement < 0x80000000 );
            shift32RightJamming( zSig, - zExp, &zSig );
     a34:	c8 06 10 00 	sub r2,r0,r6
    bits32 z;

    if ( count == 0 ) {
        z = a;
    }
    else if ( count < 32 ) {
     a38:	34 01 00 1f 	mvi r1,31
     a3c:	48 41 00 06 	bg r2,r1,a54 <roundAndPackFloat32+0x154>
        z = ( a>>count ) | ( ( a<<( ( - count ) & 31 ) ) != 0 );
     a40:	bc e6 08 00 	sl r1,r7,r6
     a44:	80 e2 10 00 	sru r2,r7,r2
     a48:	7c 21 00 00 	cmpnei r1,r1,0
     a4c:	b8 22 38 00 	or r7,r1,r2
     a50:	e0 00 00 02 	bi a58 <roundAndPackFloat32+0x158>
    }
    else {
        z = ( a != 0 );
     a54:	7c e7 00 00 	cmpnei r7,r7,0
            zExp = 0;
            roundBits = zSig & 0x7F;
     a58:	20 e3 00 7f 	andi r3,r7,0x7f
            if ( isTiny && roundBits ) float_raise( float_flag_underflow );
     a5c:	7c 61 00 00 	cmpnei r1,r3,0
     a60:	b4 a7 20 00 	add r4,r5,r7
     a64:	a1 41 08 00 	and r1,r10,r1
     a68:	b8 20 30 00 	mv r6,r1
     a6c:	44 20 ff bd 	be r1,r0,960 <roundAndPackFloat32+0x60>
     a70:	78 02 00 00 	mvhi r2,0x0
     a74:	38 42 28 ec 	ori r2,r2,0x28ec
     a78:	28 41 00 00 	lw r1,(r2+0)
     a7c:	b4 a7 20 00 	add r4,r5,r7
     a80:	34 06 00 00 	mvi r6,0
     a84:	38 21 00 04 	ori r1,r1,0x4
     a88:	58 41 00 00 	sw (r2+0),r1
     a8c:	e3 ff ff c4 	bi 99c <roundAndPackFloat32+0x9c>

00000a90 <normalizeRoundAndPackFloat32>:
point exponent.
-------------------------------------------------------------------------------
*/
static float32
 normalizeRoundAndPackFloat32( flag zSign, int16 zExp, bits32 zSig )
{
     a90:	37 9c ff fc 	addi sp,sp,-4
     a94:	5b 9d 00 04 	sw (sp+4),ra
     a98:	b8 20 30 00 	mv r6,r1
        0, 0, 0, 0, 0, 0, 0, 0, 0, 0, 0, 0, 0, 0, 0, 0
    };
    int8 shiftCount;
      
    shiftCount = 0;
    if ( a < 0x10000 ) {
     a9c:	38 01 ff ff 	mvu r1,0xffff
     aa0:	b8 40 38 00 	mv r7,r2
     aa4:	b8 60 28 00 	mv r5,r3
        shiftCount += 16;
        a <<= 16;
     aa8:	3c 62 00 10 	sli r2,r3,16
     aac:	34 04 00 10 	mvi r4,16
        0, 0, 0, 0, 0, 0, 0, 0, 0, 0, 0, 0, 0, 0, 0, 0
    };
    int8 shiftCount;
      
    shiftCount = 0;
    if ( a < 0x10000 ) {
     ab0:	50 23 00 03 	bgeu r1,r3,abc <normalizeRoundAndPackFloat32+0x2c>
     ab4:	b8 60 10 00 	mv r2,r3
     ab8:	34 04 00 00 	mvi r4,0
        shiftCount += 16;
        a <<= 16;
    }
    if ( a < 0x1000000 ) {
     abc:	78 01 00 ff 	mvhi r1,0xff
     ac0:	38 21 ff ff 	ori r1,r1,0xffff
     ac4:	54 41 00 03 	bgu r2,r1,ad0 <normalizeRoundAndPackFloat32+0x40>
        shiftCount += 8;
        a <<= 8;
     ac8:	3c 42 00 08 	sli r2,r2,8
    if ( a < 0x10000 ) {
        shiftCount += 16;
        a <<= 16;
    }
    if ( a < 0x1000000 ) {
        shiftCount += 8;
     acc:	34 84 00 08 	addi r4,r4,8
    int8 shiftCount;
	
    shiftCount = countLeadingZeros32( zSig ) - 1;
     ad0:	00 42 00 18 	srui r2,r2,24
     ad4:	78 01 00 00 	mvhi r1,0x0
     ad8:	3c 42 00 02 	sli r2,r2,2
     adc:	38 21 24 90 	ori r1,r1,0x2490
     ae0:	b4 22 08 00 	add r1,r1,r2
     ae4:	28 23 00 00 	lw r3,(r1+0)
     ae8:	34 82 ff ff 	addi r2,r4,-1
    return roundAndPackFloat32( zSign, zExp - shiftCount, zSig<<shiftCount );
     aec:	b8 c0 08 00 	mv r1,r6
static float32
 normalizeRoundAndPackFloat32( flag zSign, int16 zExp, bits32 zSig )
{
    int8 shiftCount;
	
    shiftCount = countLeadingZeros32( zSig ) - 1;
     af0:	b4 43 10 00 	add r2,r2,r3
    return roundAndPackFloat32( zSign, zExp - shiftCount, zSig<<shiftCount );
     af4:	bc a2 18 00 	sl r3,r5,r2
     af8:	c8 e2 10 00 	sub r2,r7,r2
     afc:	fb ff ff 81 	calli 900 <roundAndPackFloat32>

}
     b00:	2b 9d 00 04 	lw ra,(sp+4)
     b04:	37 9c 00 04 	addi sp,sp,4
     b08:	c3 a0 00 00 	ret

00000b0c <int32_to_float32>:
the single-precision floating-point format.  The conversion is performed
according to the IEC/IEEE Standard for Binary Floating-point Arithmetic.
-------------------------------------------------------------------------------
*/
float32 int32_to_float32( int32 a )
{
     b0c:	37 9c ff fc 	addi sp,sp,-4
     b10:	5b 9d 00 04 	sw (sp+4),ra
     b14:	b8 20 18 00 	mv r3,r1
    flag zSign;

    if ( a == 0 ) return 0;
     b18:	44 60 00 09 	be r3,r0,b3c <int32_to_float32+0x30>
    if ( a == 0x80000000 ) return packFloat32( 1, 0x9E, 0 );
     b1c:	78 01 80 00 	mvhi r1,0x8000
     b20:	38 21 00 00 	ori r1,r1,0x0
     b24:	44 61 00 09 	be r3,r1,b48 <int32_to_float32+0x3c>
    zSign = ( a < 0 );
     b28:	00 61 00 1f 	srui r1,r3,31
    return normalizeRoundAndPackFloat32( zSign, 0x9C, zSign ? - a : a );
     b2c:	44 20 00 02 	be r1,r0,b34 <int32_to_float32+0x28>
     b30:	c8 03 18 00 	sub r3,r0,r3
     b34:	34 02 00 9c 	mvi r2,156
     b38:	fb ff ff d6 	calli a90 <normalizeRoundAndPackFloat32>

}
     b3c:	2b 9d 00 04 	lw ra,(sp+4)
     b40:	37 9c 00 04 	addi sp,sp,4
     b44:	c3 a0 00 00 	ret
float32 int32_to_float32( int32 a )
{
    flag zSign;

    if ( a == 0 ) return 0;
    if ( a == 0x80000000 ) return packFloat32( 1, 0x9E, 0 );
     b48:	78 01 cf 00 	mvhi r1,0xcf00
     b4c:	38 21 00 00 	ori r1,r1,0x0
    zSign = ( a < 0 );
    return normalizeRoundAndPackFloat32( zSign, 0x9C, zSign ? - a : a );

}
     b50:	2b 9d 00 04 	lw ra,(sp+4)
     b54:	37 9c 00 04 	addi sp,sp,4
     b58:	c3 a0 00 00 	ret

00000b5c <float32_to_int32>:
positive integer is returned.  Otherwise, if the conversion overflows, the
largest integer with the same sign as `a' is returned.
-------------------------------------------------------------------------------
*/
int32 float32_to_int32( float32 a )
{
     b5c:	00 22 00 17 	srui r2,r1,23
     b60:	b8 20 18 00 	mv r3,r1
-------------------------------------------------------------------------------
*/
INLINE int16 extractFloat32Exp( float32 a )
{

    return ( a>>23 ) & 0xFF;
     b64:	20 45 00 ff 	andi r5,r2,0xff
-------------------------------------------------------------------------------
*/
INLINE bits32 extractFloat32Frac( float32 a )
{

    return a & 0x007FFFFF;
     b68:	78 01 00 7f 	mvhi r1,0x7f
     b6c:	38 21 ff ff 	ori r1,r1,0xffff
    int8 roundingMode;

    aSig = extractFloat32Frac( a );
    aExp = extractFloat32Exp( a );
    aSign = extractFloat32Sign( a );
    shiftCount = aExp - 0x96;
     b70:	34 a4 ff 6a 	addi r4,r5,-150
-------------------------------------------------------------------------------
*/
INLINE bits32 extractFloat32Frac( float32 a )
{

    return a & 0x007FFFFF;
     b74:	a0 61 30 00 	and r6,r3,r1
-------------------------------------------------------------------------------
*/
INLINE flag extractFloat32Sign( float32 a )
{

    return a>>31;
     b78:	00 67 00 1f 	srui r7,r3,31

    aSig = extractFloat32Frac( a );
    aExp = extractFloat32Exp( a );
    aSign = extractFloat32Sign( a );
    shiftCount = aExp - 0x96;
    if ( 0 <= shiftCount ) {
     b7c:	48 04 00 1c 	bg r0,r4,bec <float32_to_int32+0x90>
        if ( 0x9E <= aExp ) {
     b80:	34 01 00 9d 	mvi r1,157
     b84:	4c 25 00 12 	bge r1,r5,bcc <float32_to_int32+0x70>
            if ( a == 0xCF000000 ) return 0x80000000;
     b88:	78 01 cf 00 	mvhi r1,0xcf00
     b8c:	38 21 00 00 	ori r1,r1,0x0
     b90:	44 61 00 40 	be r3,r1,c90 <float32_to_int32+0x134>
     b94:	78 02 00 00 	mvhi r2,0x0
     b98:	38 42 28 ec 	ori r2,r2,0x28ec
     b9c:	28 41 00 00 	lw r1,(r2+0)
     ba0:	38 21 00 10 	ori r1,r1,0x10
     ba4:	58 41 00 00 	sw (r2+0),r1
            float_raise( float_flag_invalid );
            if ( ! aSign || ( ( aExp == 0xFF ) && aSig ) ) return 0x7FFFFFFF;
     ba8:	44 e0 00 05 	be r7,r0,bbc <float32_to_int32+0x60>
     bac:	64 a1 00 ff 	cmpei r1,r5,255
     bb0:	7c c2 00 00 	cmpnei r2,r6,0
     bb4:	a0 22 08 00 	and r1,r1,r2
     bb8:	44 20 00 36 	be r1,r0,c90 <float32_to_int32+0x134>
            if ( aSign ) {
                z += ( roundingMode == float_round_down ) & zExtra;
                z = - z;
            }
            else {
                z += ( roundingMode == float_round_up ) & zExtra;
     bbc:	78 03 7f ff 	mvhi r3,0x7fff
     bc0:	38 63 ff ff 	ori r3,r3,0xffff
            }
        }
    }
    return z;

}
     bc4:	b8 60 08 00 	mv r1,r3
     bc8:	c3 a0 00 00 	ret
            if ( a == 0xCF000000 ) return 0x80000000;
            float_raise( float_flag_invalid );
            if ( ! aSign || ( ( aExp == 0xFF ) && aSig ) ) return 0x7FFFFFFF;
            return 0x80000000;
        }
        z = ( aSig | 0x00800000 )<<shiftCount;
     bcc:	78 01 00 80 	mvhi r1,0x80
     bd0:	38 21 00 00 	ori r1,r1,0x0
     bd4:	b8 c1 08 00 	or r1,r6,r1
     bd8:	bc 24 18 00 	sl r3,r1,r4
        if ( aSign ) z = - z;
     bdc:	44 e0 ff fa 	be r7,r0,bc4 <float32_to_int32+0x68>
        if ( roundingMode == float_round_nearest_even ) {
            if ( (sbits32) zExtra < 0 ) {
                ++z;
                if ( (bits32) ( zExtra<<1 ) == 0 ) z &= ~1;
            }
            if ( aSign ) z = - z;
     be0:	c8 03 18 00 	sub r3,r0,r3
            }
        }
    }
    return z;

}
     be4:	b8 60 08 00 	mv r1,r3
     be8:	c3 a0 00 00 	ret
        }
        z = ( aSig | 0x00800000 )<<shiftCount;
        if ( aSign ) z = - z;
    }
    else {
        if ( aExp < 0x7E ) {
     bec:	34 01 00 7d 	mvi r1,125
     bf0:	48 a1 00 16 	bg r5,r1,c48 <float32_to_int32+0xec>
            zExtra = aExp | aSig;
     bf4:	b8 a6 20 00 	or r4,r5,r6
     bf8:	34 03 00 00 	mvi r3,0
        else {
            aSig |= 0x00800000;
            zExtra = aSig<<( shiftCount & 31 );
            z = aSig>>( - shiftCount );
        }
        if ( zExtra ) float_exception_flags |= float_flag_inexact;
     bfc:	44 80 00 06 	be r4,r0,c14 <float32_to_int32+0xb8>
     c00:	78 02 00 00 	mvhi r2,0x0
     c04:	38 42 28 ec 	ori r2,r2,0x28ec
     c08:	28 41 00 00 	lw r1,(r2+0)
     c0c:	38 21 00 01 	ori r1,r1,0x1
     c10:	58 41 00 00 	sw (r2+0),r1
        roundingMode = float_rounding_mode;
     c14:	78 01 00 00 	mvhi r1,0x0
     c18:	38 21 28 e8 	ori r1,r1,0x28e8
     c1c:	28 21 00 00 	lw r1,(r1+0)
        if ( roundingMode == float_round_nearest_even ) {
     c20:	5c 20 00 11 	bne r1,r0,c64 <float32_to_int32+0x108>
            if ( (sbits32) zExtra < 0 ) {
     c24:	4c 81 00 06 	bge r4,r1,c3c <float32_to_int32+0xe0>
                ++z;
                if ( (bits32) ( zExtra<<1 ) == 0 ) z &= ~1;
     c28:	b4 84 08 00 	add r1,r4,r4
        }
        if ( zExtra ) float_exception_flags |= float_flag_inexact;
        roundingMode = float_rounding_mode;
        if ( roundingMode == float_round_nearest_even ) {
            if ( (sbits32) zExtra < 0 ) {
                ++z;
     c2c:	34 63 00 01 	addi r3,r3,1
                if ( (bits32) ( zExtra<<1 ) == 0 ) z &= ~1;
     c30:	5c 20 00 03 	bne r1,r0,c3c <float32_to_int32+0xe0>
     c34:	34 01 ff fe 	mvi r1,-2
     c38:	a0 61 18 00 	and r3,r3,r1
            }
            if ( aSign ) z = - z;
     c3c:	44 e0 ff e2 	be r7,r0,bc4 <float32_to_int32+0x68>
     c40:	c8 03 18 00 	sub r3,r0,r3
     c44:	e3 ff ff e8 	bi be4 <float32_to_int32+0x88>
        if ( aExp < 0x7E ) {
            zExtra = aExp | aSig;
            z = 0;
        }
        else {
            aSig |= 0x00800000;
     c48:	78 01 00 80 	mvhi r1,0x80
     c4c:	38 21 00 00 	ori r1,r1,0x0
     c50:	b8 c1 08 00 	or r1,r6,r1
            zExtra = aSig<<( shiftCount & 31 );
            z = aSig>>( - shiftCount );
     c54:	c8 04 10 00 	sub r2,r0,r4
     c58:	80 22 18 00 	sru r3,r1,r2
            zExtra = aExp | aSig;
            z = 0;
        }
        else {
            aSig |= 0x00800000;
            zExtra = aSig<<( shiftCount & 31 );
     c5c:	bc 24 20 00 	sl r4,r1,r4
     c60:	e3 ff ff e7 	bi bfc <float32_to_int32+0xa0>
                if ( (bits32) ( zExtra<<1 ) == 0 ) z &= ~1;
            }
            if ( aSign ) z = - z;
        }
        else {
            zExtra = ( zExtra != 0 );
     c64:	7c 82 00 00 	cmpnei r2,r4,0
            if ( aSign ) {
     c68:	44 e0 00 06 	be r7,r0,c80 <float32_to_int32+0x124>
                z += ( roundingMode == float_round_down ) & zExtra;
     c6c:	64 21 00 03 	cmpei r1,r1,3
     c70:	a0 41 08 00 	and r1,r2,r1
     c74:	b4 23 08 00 	add r1,r1,r3
                z = - z;
     c78:	c8 01 18 00 	sub r3,r0,r1
     c7c:	e3 ff ff d2 	bi bc4 <float32_to_int32+0x68>
            }
            else {
                z += ( roundingMode == float_round_up ) & zExtra;
     c80:	64 21 00 02 	cmpei r1,r1,2
     c84:	a0 41 08 00 	and r1,r2,r1
     c88:	b4 23 18 00 	add r3,r1,r3
     c8c:	e3 ff ff ce 	bi bc4 <float32_to_int32+0x68>
    shiftCount = aExp - 0x96;
    if ( 0 <= shiftCount ) {
        if ( 0x9E <= aExp ) {
            if ( a == 0xCF000000 ) return 0x80000000;
            float_raise( float_flag_invalid );
            if ( ! aSign || ( ( aExp == 0xFF ) && aSig ) ) return 0x7FFFFFFF;
     c90:	78 03 80 00 	mvhi r3,0x8000
     c94:	38 63 00 00 	ori r3,r3,0x0
     c98:	e3 ff ff cb 	bi bc4 <float32_to_int32+0x68>

00000c9c <float32_to_int32_round_to_zero>:
conversion overflows, the largest integer with the same sign as `a' is
returned.
-------------------------------------------------------------------------------
*/
int32 float32_to_int32_round_to_zero( float32 a )
{
     c9c:	00 22 00 17 	srui r2,r1,23
     ca0:	b8 20 18 00 	mv r3,r1
-------------------------------------------------------------------------------
*/
INLINE int16 extractFloat32Exp( float32 a )
{

    return ( a>>23 ) & 0xFF;
     ca4:	20 45 00 ff 	andi r5,r2,0xff
-------------------------------------------------------------------------------
*/
INLINE bits32 extractFloat32Frac( float32 a )
{

    return a & 0x007FFFFF;
     ca8:	78 01 00 7f 	mvhi r1,0x7f
     cac:	38 21 ff ff 	ori r1,r1,0xffff
    int32 z;

    aSig = extractFloat32Frac( a );
    aExp = extractFloat32Exp( a );
    aSign = extractFloat32Sign( a );
    shiftCount = aExp - 0x9E;
     cb0:	34 a4 ff 62 	addi r4,r5,-158
-------------------------------------------------------------------------------
*/
INLINE bits32 extractFloat32Frac( float32 a )
{

    return a & 0x007FFFFF;
     cb4:	a0 61 30 00 	and r6,r3,r1
-------------------------------------------------------------------------------
*/
INLINE flag extractFloat32Sign( float32 a )
{

    return a>>31;
     cb8:	00 67 00 1f 	srui r7,r3,31

    aSig = extractFloat32Frac( a );
    aExp = extractFloat32Exp( a );
    aSign = extractFloat32Sign( a );
    shiftCount = aExp - 0x9E;
    if ( 0 <= shiftCount ) {
     cbc:	48 04 00 11 	bg r0,r4,d00 <float32_to_int32_round_to_zero+0x64>
        if ( a == 0xCF000000 ) return 0x80000000;
     cc0:	78 01 cf 00 	mvhi r1,0xcf00
     cc4:	38 21 00 00 	ori r1,r1,0x0
     cc8:	44 61 00 0b 	be r3,r1,cf4 <float32_to_int32_round_to_zero+0x58>
     ccc:	78 02 00 00 	mvhi r2,0x0
     cd0:	38 42 28 ec 	ori r2,r2,0x28ec
     cd4:	28 41 00 00 	lw r1,(r2+0)
     cd8:	38 21 00 10 	ori r1,r1,0x10
     cdc:	58 41 00 00 	sw (r2+0),r1
        float_raise( float_flag_invalid );
        if ( ! aSign || ( ( aExp == 0xFF ) && aSig ) ) return 0x7FFFFFFF;
     ce0:	44 e0 00 26 	be r7,r0,d78 <float32_to_int32_round_to_zero+0xdc>
     ce4:	64 a1 00 ff 	cmpei r1,r5,255
     ce8:	7c c2 00 00 	cmpnei r2,r6,0
     cec:	a0 22 08 00 	and r1,r1,r2
     cf0:	5c 20 00 22 	bne r1,r0,d78 <float32_to_int32_round_to_zero+0xdc>
     cf4:	78 04 80 00 	mvhi r4,0x8000
     cf8:	38 84 00 00 	ori r4,r4,0x0
     cfc:	e0 00 00 0c 	bi d2c <float32_to_int32_round_to_zero+0x90>
        return 0x80000000;
    }
    else if ( aExp <= 0x7E ) {
     d00:	34 01 00 7e 	mvi r1,126
     d04:	48 a1 00 0c 	bg r5,r1,d34 <float32_to_int32_round_to_zero+0x98>
        if ( aExp | aSig ) float_exception_flags |= float_flag_inexact;
     d08:	b8 a6 08 00 	or r1,r5,r6
     d0c:	b8 20 20 00 	mv r4,r1
     d10:	44 20 00 07 	be r1,r0,d2c <float32_to_int32_round_to_zero+0x90>
     d14:	78 02 00 00 	mvhi r2,0x0
     d18:	38 42 28 ec 	ori r2,r2,0x28ec
     d1c:	28 41 00 00 	lw r1,(r2+0)
     d20:	34 04 00 00 	mvi r4,0
     d24:	38 21 00 01 	ori r1,r1,0x1
     d28:	58 41 00 00 	sw (r2+0),r1
    if ( (bits32) ( aSig<<( shiftCount & 31 ) ) ) {
        float_exception_flags |= float_flag_inexact;
    }
    return aSign ? - z : z;

}
     d2c:	b8 80 08 00 	mv r1,r4
     d30:	c3 a0 00 00 	ret
    }
    else if ( aExp <= 0x7E ) {
        if ( aExp | aSig ) float_exception_flags |= float_flag_inexact;
        return 0;
    }
    aSig = ( aSig | 0x00800000 )<<8;
     d34:	78 01 00 80 	mvhi r1,0x80
     d38:	38 21 00 00 	ori r1,r1,0x0
     d3c:	b8 c1 08 00 	or r1,r6,r1
     d40:	3c 21 00 08 	sli r1,r1,8
    z = aSig>>( - shiftCount );
     d44:	c8 04 10 00 	sub r2,r0,r4
    if ( (bits32) ( aSig<<( shiftCount & 31 ) ) ) {
     d48:	bc 24 18 00 	sl r3,r1,r4
    else if ( aExp <= 0x7E ) {
        if ( aExp | aSig ) float_exception_flags |= float_flag_inexact;
        return 0;
    }
    aSig = ( aSig | 0x00800000 )<<8;
    z = aSig>>( - shiftCount );
     d4c:	80 22 20 00 	sru r4,r1,r2
    if ( (bits32) ( aSig<<( shiftCount & 31 ) ) ) {
     d50:	44 60 00 06 	be r3,r0,d68 <float32_to_int32_round_to_zero+0xcc>
        float_exception_flags |= float_flag_inexact;
     d54:	78 02 00 00 	mvhi r2,0x0
     d58:	38 42 28 ec 	ori r2,r2,0x28ec
     d5c:	28 41 00 00 	lw r1,(r2+0)
     d60:	38 21 00 01 	ori r1,r1,0x1
     d64:	58 41 00 00 	sw (r2+0),r1
    }
    return aSign ? - z : z;
     d68:	44 e0 ff f1 	be r7,r0,d2c <float32_to_int32_round_to_zero+0x90>
     d6c:	c8 04 20 00 	sub r4,r0,r4

}
     d70:	b8 80 08 00 	mv r1,r4
     d74:	c3 a0 00 00 	ret
    aSig = ( aSig | 0x00800000 )<<8;
    z = aSig>>( - shiftCount );
    if ( (bits32) ( aSig<<( shiftCount & 31 ) ) ) {
        float_exception_flags |= float_flag_inexact;
    }
    return aSign ? - z : z;
     d78:	78 04 7f ff 	mvhi r4,0x7fff
     d7c:	38 84 ff ff 	ori r4,r4,0xffff
     d80:	e3 ff ff eb 	bi d2c <float32_to_int32_round_to_zero+0x90>

00000d84 <float32_round_to_int>:
operation is performed according to the IEC/IEEE Standard for Binary
Floating-point Arithmetic.
-------------------------------------------------------------------------------
*/
float32 float32_round_to_int( float32 a )
{
     d84:	37 9c ff fc 	addi sp,sp,-4
     d88:	5b 9d 00 04 	sw (sp+4),ra
-------------------------------------------------------------------------------
*/
INLINE int16 extractFloat32Exp( float32 a )
{

    return ( a>>23 ) & 0xFF;
     d8c:	00 22 00 17 	srui r2,r1,23
    bits32 lastBitMask, roundBitsMask;
    int8 roundingMode;
    float32 z;

    aExp = extractFloat32Exp( a );
    if ( 0x96 <= aExp ) {
     d90:	34 03 00 95 	mvi r3,149
-------------------------------------------------------------------------------
*/
INLINE int16 extractFloat32Exp( float32 a )
{

    return ( a>>23 ) & 0xFF;
     d94:	20 44 00 ff 	andi r4,r2,0xff
operation is performed according to the IEC/IEEE Standard for Binary
Floating-point Arithmetic.
-------------------------------------------------------------------------------
*/
float32 float32_round_to_int( float32 a )
{
     d98:	b8 20 28 00 	mv r5,r1
    bits32 lastBitMask, roundBitsMask;
    int8 roundingMode;
    float32 z;

    aExp = extractFloat32Exp( a );
    if ( 0x96 <= aExp ) {
     d9c:	4c 64 00 07 	bge r3,r4,db8 <float32_round_to_int+0x34>
        if ( ( aExp == 0xFF ) && extractFloat32Frac( a ) ) {
     da0:	34 02 00 ff 	mvi r2,255
     da4:	44 82 00 34 	be r4,r2,e74 <float32_round_to_int+0xf0>
    }
    z &= ~ roundBitsMask;
    if ( z != a ) float_exception_flags |= float_flag_inexact;
    return z;

}
     da8:	b8 a0 08 00 	mv r1,r5
     dac:	2b 9d 00 04 	lw ra,(sp+4)
     db0:	37 9c 00 04 	addi sp,sp,4
     db4:	c3 a0 00 00 	ret
        if ( ( aExp == 0xFF ) && extractFloat32Frac( a ) ) {
            return propagateFloat32NaN( a, a );
        }
        return a;
    }
    if ( aExp <= 0x7E ) {
     db8:	34 07 00 7e 	mvi r7,126
     dbc:	48 87 00 13 	bg r4,r7,e08 <float32_round_to_int+0x84>
        if ( (bits32) ( a<<1 ) == 0 ) return a;
     dc0:	b4 21 08 00 	add r1,r1,r1
     dc4:	44 20 ff f9 	be r1,r0,da8 <float32_round_to_int+0x24>
        float_exception_flags |= float_flag_inexact;
     dc8:	78 03 00 00 	mvhi r3,0x0
     dcc:	38 63 28 ec 	ori r3,r3,0x28ec
     dd0:	28 62 00 00 	lw r2,(r3+0)
        aSign = extractFloat32Sign( a );
        switch ( float_rounding_mode ) {
     dd4:	78 01 00 00 	mvhi r1,0x0
     dd8:	38 21 28 e8 	ori r1,r1,0x28e8
     ddc:	28 26 00 00 	lw r6,(r1+0)
        }
        return a;
    }
    if ( aExp <= 0x7E ) {
        if ( (bits32) ( a<<1 ) == 0 ) return a;
        float_exception_flags |= float_flag_inexact;
     de0:	38 42 00 01 	ori r2,r2,0x1
     de4:	58 62 00 00 	sw (r3+0),r2
        aSign = extractFloat32Sign( a );
        switch ( float_rounding_mode ) {
     de8:	34 01 00 02 	mvi r1,2
-------------------------------------------------------------------------------
*/
INLINE flag extractFloat32Sign( float32 a )
{

    return a>>31;
     dec:	00 a2 00 1f 	srui r2,r5,31
    }
    if ( aExp <= 0x7E ) {
        if ( (bits32) ( a<<1 ) == 0 ) return a;
        float_exception_flags |= float_flag_inexact;
        aSign = extractFloat32Sign( a );
        switch ( float_rounding_mode ) {
     df0:	44 c1 00 41 	be r6,r1,ef4 <float32_round_to_int+0x170>
     df4:	34 01 00 03 	mvi r1,3
     df8:	44 c1 00 3a 	be r6,r1,ee0 <float32_round_to_int+0x15c>
     dfc:	44 c0 00 2f 	be r6,r0,eb8 <float32_round_to_int+0x134>
significand.
-------------------------------------------------------------------------------
*/
INLINE float32 packFloat32( flag zSign, int16 zExp, bits32 zSig )
{
    return ( ( (bits32) zSign )<<31 ) + ( ( (bits32) zExp )<<23 ) + zSig;
     e00:	3c 45 00 1f 	sli r5,r2,31
     e04:	e3 ff ff e9 	bi da8 <float32_round_to_int+0x24>
    }
    lastBitMask = 1;
    lastBitMask <<= 0x96 - aExp;
    roundBitsMask = lastBitMask - 1;
    z = a;
    roundingMode = float_rounding_mode;
     e08:	78 01 00 00 	mvhi r1,0x0
     e0c:	38 21 28 e8 	ori r1,r1,0x28e8
            return aSign ? 0x80000000 : 0x3F800000;
        }
        return packFloat32( aSign, 0, 0 );
    }
    lastBitMask = 1;
    lastBitMask <<= 0x96 - aExp;
     e10:	34 02 00 96 	mvi r2,150
     e14:	c8 44 10 00 	sub r2,r2,r4
    roundBitsMask = lastBitMask - 1;
    z = a;
    roundingMode = float_rounding_mode;
     e18:	28 24 00 00 	lw r4,(r1+0)
            return aSign ? 0x80000000 : 0x3F800000;
        }
        return packFloat32( aSign, 0, 0 );
    }
    lastBitMask = 1;
    lastBitMask <<= 0x96 - aExp;
     e1c:	34 01 00 01 	mvi r1,1
     e20:	bc 22 18 00 	sl r3,r1,r2
    roundBitsMask = lastBitMask - 1;
     e24:	34 67 ff ff 	addi r7,r3,-1
    z = a;
    roundingMode = float_rounding_mode;
    if ( roundingMode == float_round_nearest_even ) {
     e28:	44 80 00 1b 	be r4,r0,e94 <float32_round_to_int+0x110>
        z += lastBitMask>>1;
        if ( ( z & roundBitsMask ) == 0 ) z &= ~ lastBitMask;
    }
    else if ( roundingMode != float_round_to_zero ) {
     e2c:	44 81 00 21 	be r4,r1,eb0 <float32_round_to_int+0x12c>
        if ( extractFloat32Sign( z ) ^ ( roundingMode == float_round_up ) ) {
     e30:	64 82 00 02 	cmpei r2,r4,2
     e34:	00 a1 00 1f 	srui r1,r5,31
            z += roundBitsMask;
     e38:	b4 e5 30 00 	add r6,r7,r5
    if ( roundingMode == float_round_nearest_even ) {
        z += lastBitMask>>1;
        if ( ( z & roundBitsMask ) == 0 ) z &= ~ lastBitMask;
    }
    else if ( roundingMode != float_round_to_zero ) {
        if ( extractFloat32Sign( z ) ^ ( roundingMode == float_round_up ) ) {
     e3c:	44 41 00 1d 	be r2,r1,eb0 <float32_round_to_int+0x12c>
            z += roundBitsMask;
        }
    }
    z &= ~ roundBitsMask;
     e40:	a4 e0 08 00 	not r1,r7
     e44:	a0 c1 18 00 	and r3,r6,r1
    if ( z != a ) float_exception_flags |= float_flag_inexact;
     e48:	44 65 ff d8 	be r3,r5,da8 <float32_round_to_int+0x24>
     e4c:	78 02 00 00 	mvhi r2,0x0
     e50:	38 42 28 ec 	ori r2,r2,0x28ec
     e54:	28 41 00 00 	lw r1,(r2+0)
     e58:	b8 60 28 00 	mv r5,r3
     e5c:	38 21 00 01 	ori r1,r1,0x1
     e60:	58 41 00 00 	sw (r2+0),r1
    return z;

}
     e64:	b8 a0 08 00 	mv r1,r5
     e68:	2b 9d 00 04 	lw ra,(sp+4)
     e6c:	37 9c 00 04 	addi sp,sp,4
     e70:	c3 a0 00 00 	ret
    int8 roundingMode;
    float32 z;

    aExp = extractFloat32Exp( a );
    if ( 0x96 <= aExp ) {
        if ( ( aExp == 0xFF ) && extractFloat32Frac( a ) ) {
     e74:	78 02 00 7f 	mvhi r2,0x7f
     e78:	38 42 ff ff 	ori r2,r2,0xffff
     e7c:	a0 22 10 00 	and r2,r1,r2
     e80:	44 40 ff ca 	be r2,r0,da8 <float32_round_to_int+0x24>
            return propagateFloat32NaN( a, a );
     e84:	b8 20 10 00 	mv r2,r1
     e88:	fb ff fe 6f 	calli 844 <propagateFloat32NaN>
     e8c:	b8 20 28 00 	mv r5,r1
     e90:	e3 ff ff c6 	bi da8 <float32_round_to_int+0x24>
    lastBitMask <<= 0x96 - aExp;
    roundBitsMask = lastBitMask - 1;
    z = a;
    roundingMode = float_rounding_mode;
    if ( roundingMode == float_round_nearest_even ) {
        z += lastBitMask>>1;
     e94:	80 61 08 00 	sru r1,r3,r1
     e98:	b4 25 30 00 	add r6,r1,r5
        if ( ( z & roundBitsMask ) == 0 ) z &= ~ lastBitMask;
     e9c:	a0 c7 10 00 	and r2,r6,r7
     ea0:	5c 44 ff e8 	bne r2,r4,e40 <float32_round_to_int+0xbc>
     ea4:	a4 60 08 00 	not r1,r3
     ea8:	a0 c1 30 00 	and r6,r6,r1
     eac:	e3 ff ff e5 	bi e40 <float32_round_to_int+0xbc>
    }
    else if ( roundingMode != float_round_to_zero ) {
        if ( extractFloat32Sign( z ) ^ ( roundingMode == float_round_up ) ) {
            z += roundBitsMask;
     eb0:	b8 a0 30 00 	mv r6,r5
     eb4:	e3 ff ff e3 	bi e40 <float32_round_to_int+0xbc>
        if ( (bits32) ( a<<1 ) == 0 ) return a;
        float_exception_flags |= float_flag_inexact;
        aSign = extractFloat32Sign( a );
        switch ( float_rounding_mode ) {
         case float_round_nearest_even:
            if ( ( aExp == 0x7E ) && extractFloat32Frac( a ) ) {
     eb8:	5c 87 ff d2 	bne r4,r7,e00 <float32_round_to_int+0x7c>
     ebc:	78 01 00 7f 	mvhi r1,0x7f
     ec0:	38 21 ff ff 	ori r1,r1,0xffff
     ec4:	a0 a1 08 00 	and r1,r5,r1
     ec8:	44 20 ff ce 	be r1,r0,e00 <float32_round_to_int+0x7c>
significand.
-------------------------------------------------------------------------------
*/
INLINE float32 packFloat32( flag zSign, int16 zExp, bits32 zSig )
{
    return ( ( (bits32) zSign )<<31 ) + ( ( (bits32) zExp )<<23 ) + zSig;
     ecc:	3c 42 00 1f 	sli r2,r2,31
     ed0:	78 01 3f 80 	mvhi r1,0x3f80
     ed4:	38 21 00 00 	ori r1,r1,0x0
     ed8:	b4 41 28 00 	add r5,r2,r1
     edc:	e3 ff ff b3 	bi da8 <float32_round_to_int+0x24>
            if ( ( aExp == 0x7E ) && extractFloat32Frac( a ) ) {
                return packFloat32( aSign, 0x7F, 0 );
            }
            break;
         case float_round_down:
            return aSign ? 0xBF800000 : 0;
     ee0:	b8 40 28 00 	mv r5,r2
     ee4:	44 40 ff b1 	be r2,r0,da8 <float32_round_to_int+0x24>
     ee8:	78 05 bf 80 	mvhi r5,0xbf80
     eec:	38 a5 00 00 	ori r5,r5,0x0
     ef0:	e3 ff ff ae 	bi da8 <float32_round_to_int+0x24>
         case float_round_up:
            return aSign ? 0x80000000 : 0x3F800000;
     ef4:	5c 40 00 04 	bne r2,r0,f04 <float32_round_to_int+0x180>
     ef8:	78 05 3f 80 	mvhi r5,0x3f80
     efc:	38 a5 00 00 	ori r5,r5,0x0
     f00:	e3 ff ff aa 	bi da8 <float32_round_to_int+0x24>
     f04:	78 05 80 00 	mvhi r5,0x8000
     f08:	38 a5 00 00 	ori r5,r5,0x0
     f0c:	e3 ff ff a7 	bi da8 <float32_round_to_int+0x24>

00000f10 <addFloat32Sigs>:
addition is performed according to the IEC/IEEE Standard for Binary
Floating-point Arithmetic.
-------------------------------------------------------------------------------
*/
static float32 addFloat32Sigs( float32 a, float32 b, flag zSign )
{
     f10:	37 9c ff fc 	addi sp,sp,-4
     f14:	5b 9d 00 04 	sw (sp+4),ra
-------------------------------------------------------------------------------
*/
INLINE int16 extractFloat32Exp( float32 a )
{

    return ( a>>23 ) & 0xFF;
     f18:	00 26 00 17 	srui r6,r1,23
    aSig = extractFloat32Frac( a );
    aExp = extractFloat32Exp( a );
    bSig = extractFloat32Frac( b );
    bExp = extractFloat32Exp( b );
    expDiff = aExp - bExp;
    aSig <<= 6;
     f1c:	00 47 00 17 	srui r7,r2,23
     f20:	78 04 00 7f 	mvhi r4,0x7f
     f24:	38 84 ff ff 	ori r4,r4,0xffff
-------------------------------------------------------------------------------
*/
INLINE int16 extractFloat32Exp( float32 a )
{

    return ( a>>23 ) & 0xFF;
     f28:	20 c6 00 ff 	andi r6,r6,0xff
     f2c:	20 e7 00 ff 	andi r7,r7,0xff
    aExp = extractFloat32Exp( a );
    bSig = extractFloat32Frac( b );
    bExp = extractFloat32Exp( b );
    expDiff = aExp - bExp;
    aSig <<= 6;
    bSig <<= 6;
     f30:	a0 44 28 00 	and r5,r2,r4

    aSig = extractFloat32Frac( a );
    aExp = extractFloat32Exp( a );
    bSig = extractFloat32Frac( b );
    bExp = extractFloat32Exp( b );
    expDiff = aExp - bExp;
     f34:	c8 c7 48 00 	sub r9,r6,r7
    aSig <<= 6;
     f38:	a0 24 20 00 	and r4,r1,r4
     f3c:	3c 8a 00 06 	sli r10,r4,6
addition is performed according to the IEC/IEEE Standard for Binary
Floating-point Arithmetic.
-------------------------------------------------------------------------------
*/
static float32 addFloat32Sigs( float32 a, float32 b, flag zSign )
{
     f40:	b8 20 40 00 	mv r8,r1
     f44:	b8 60 e8 00 	mv ra,r3
    aExp = extractFloat32Exp( a );
    bSig = extractFloat32Frac( b );
    bExp = extractFloat32Exp( b );
    expDiff = aExp - bExp;
    aSig <<= 6;
    bSig <<= 6;
     f48:	3c a4 00 06 	sli r4,r5,6
    if ( 0 < expDiff ) {
     f4c:	4c 09 00 1b 	bge r0,r9,fb8 <addFloat32Sigs+0xa8>
        if ( aExp == 0xFF ) {
     f50:	34 03 00 ff 	mvi r3,255
     f54:	44 c3 00 15 	be r6,r3,fa8 <addFloat32Sigs+0x98>
            if ( aSig ) return propagateFloat32NaN( a, b );
            return a;
        }
        if ( bExp == 0 ) {
     f58:	5c e0 00 21 	bne r7,r0,fdc <addFloat32Sigs+0xcc>
            --expDiff;
     f5c:	35 29 ff ff 	addi r9,r9,-1
     f60:	78 08 20 00 	mvhi r8,0x2000
*/
INLINE void shift32RightJamming( bits32 a, int16 count, bits32 *zPtr )
{
    bits32 z;

    if ( count == 0 ) {
     f64:	5d 27 00 22 	bne r9,r7,fec <addFloat32Sigs+0xdc>
     f68:	78 08 20 00 	mvhi r8,0x2000
        zSig = 0x40000000 + aSig + bSig;
        zExp = aExp;
        goto roundAndPack;
    }
    aSig |= 0x20000000;
    zSig = ( aSig + bSig )<<1;
     f6c:	39 08 00 00 	ori r8,r8,0x0
     f70:	b9 48 08 00 	or r1,r10,r8
     f74:	b4 24 18 00 	add r3,r1,r4
     f78:	b4 63 08 00 	add r1,r3,r3
    --zExp;
    if ( (sbits32) zSig < 0 ) {
     f7c:	48 01 00 03 	bg r0,r1,f88 <addFloat32Sigs+0x78>
        zExp = aExp;
        goto roundAndPack;
    }
    aSig |= 0x20000000;
    zSig = ( aSig + bSig )<<1;
    --zExp;
     f80:	34 c6 ff ff 	addi r6,r6,-1
     f84:	b8 20 18 00 	mv r3,r1
    if ( (sbits32) zSig < 0 ) {
        zSig = aSig + bSig;
        ++zExp;
    }
 roundAndPack:
    return roundAndPackFloat32( zSign, zExp, zSig );
     f88:	bb a0 08 00 	mv r1,ra
     f8c:	b8 c0 10 00 	mv r2,r6
     f90:	fb ff fe 5c 	calli 900 <roundAndPackFloat32>
     f94:	b8 20 40 00 	mv r8,r1

}
     f98:	b9 00 08 00 	mv r1,r8
     f9c:	2b 9d 00 04 	lw ra,(sp+4)
     fa0:	37 9c 00 04 	addi sp,sp,4
     fa4:	c3 a0 00 00 	ret
    expDiff = aExp - bExp;
    aSig <<= 6;
    bSig <<= 6;
    if ( 0 < expDiff ) {
        if ( aExp == 0xFF ) {
            if ( aSig ) return propagateFloat32NaN( a, b );
     fa8:	45 40 ff fc 	be r10,r0,f98 <addFloat32Sigs+0x88>
        shift32RightJamming( aSig, - expDiff, &aSig );
        zExp = bExp;
    }
    else {
        if ( aExp == 0xFF ) {
            if ( aSig | bSig ) return propagateFloat32NaN( a, b );
     fac:	fb ff fe 26 	calli 844 <propagateFloat32NaN>
     fb0:	b8 20 40 00 	mv r8,r1
     fb4:	e3 ff ff f9 	bi f98 <addFloat32Sigs+0x88>
            bSig |= 0x20000000;
        }
        shift32RightJamming( bSig, expDiff, &bSig );
        zExp = aExp;
    }
    else if ( expDiff < 0 ) {
     fb8:	5d 20 00 1a 	bne r9,r0,1020 <addFloat32Sigs+0x110>
        }
        shift32RightJamming( aSig, - expDiff, &aSig );
        zExp = bExp;
    }
    else {
        if ( aExp == 0xFF ) {
     fbc:	34 03 00 ff 	mvi r3,255
     fc0:	44 c3 00 15 	be r6,r3,1014 <addFloat32Sigs+0x104>
            if ( aSig | bSig ) return propagateFloat32NaN( a, b );
            return a;
        }
        if ( aExp == 0 ) return packFloat32( zSign, 0, ( aSig + bSig )>>6 );
     fc4:	44 c0 00 28 	be r6,r0,1064 <addFloat32Sigs+0x154>
        zSig = 0x40000000 + aSig + bSig;
     fc8:	78 01 40 00 	mvhi r1,0x4000
     fcc:	38 21 00 00 	ori r1,r1,0x0
     fd0:	b5 41 08 00 	add r1,r10,r1
     fd4:	b4 24 18 00 	add r3,r1,r4
     fd8:	e3 ff ff ec 	bi f88 <addFloat32Sigs+0x78>
        }
        if ( bExp == 0 ) {
            --expDiff;
        }
        else {
            bSig |= 0x20000000;
     fdc:	78 08 20 00 	mvhi r8,0x2000
     fe0:	b9 00 08 00 	mv r1,r8
     fe4:	38 21 00 00 	ori r1,r1,0x0
     fe8:	b8 81 20 00 	or r4,r4,r1
        z = a;
    }
    else if ( count < 32 ) {
     fec:	34 01 00 1f 	mvi r1,31
     ff0:	49 21 00 07 	bg r9,r1,100c <addFloat32Sigs+0xfc>
        z = ( a>>count ) | ( ( a<<( ( - count ) & 31 ) ) != 0 );
     ff4:	c8 09 08 00 	sub r1,r0,r9
     ff8:	bc 81 08 00 	sl r1,r4,r1
     ffc:	80 89 10 00 	sru r2,r4,r9
    1000:	7c 21 00 00 	cmpnei r1,r1,0
    1004:	b8 22 20 00 	or r4,r1,r2
    1008:	e3 ff ff d9 	bi f6c <addFloat32Sigs+0x5c>
    }
    else {
        z = ( a != 0 );
    100c:	7c 84 00 00 	cmpnei r4,r4,0
    1010:	e3 ff ff d7 	bi f6c <addFloat32Sigs+0x5c>
        shift32RightJamming( aSig, - expDiff, &aSig );
        zExp = bExp;
    }
    else {
        if ( aExp == 0xFF ) {
            if ( aSig | bSig ) return propagateFloat32NaN( a, b );
    1014:	b8 8a 18 00 	or r3,r4,r10
    1018:	44 60 ff e0 	be r3,r0,f98 <addFloat32Sigs+0x88>
    101c:	e3 ff ff e4 	bi fac <addFloat32Sigs+0x9c>
        }
        shift32RightJamming( bSig, expDiff, &bSig );
        zExp = aExp;
    }
    else if ( expDiff < 0 ) {
        if ( bExp == 0xFF ) {
    1020:	34 03 00 ff 	mvi r3,255
    1024:	44 e3 00 18 	be r7,r3,1084 <addFloat32Sigs+0x174>
            if ( bSig ) return propagateFloat32NaN( a, b );
            return packFloat32( zSign, 0xFF, 0 );
        }
        if ( aExp == 0 ) {
    1028:	44 c0 00 14 	be r6,r0,1078 <addFloat32Sigs+0x168>
            ++expDiff;
        }
        else {
            aSig |= 0x20000000;
    102c:	78 08 20 00 	mvhi r8,0x2000
    1030:	b9 00 08 00 	mv r1,r8
    1034:	38 21 00 00 	ori r1,r1,0x0
    1038:	b9 41 50 00 	or r10,r10,r1
        }
        shift32RightJamming( aSig, - expDiff, &aSig );
    103c:	c8 09 10 00 	sub r2,r0,r9
            return a;
        }
        if ( aExp == 0 ) return packFloat32( zSign, 0, ( aSig + bSig )>>6 );
        zSig = 0x40000000 + aSig + bSig;
        zExp = aExp;
        goto roundAndPack;
    1040:	b8 e0 30 00 	mv r6,r7
*/
INLINE void shift32RightJamming( bits32 a, int16 count, bits32 *zPtr )
{
    bits32 z;

    if ( count == 0 ) {
    1044:	44 40 ff ca 	be r2,r0,f6c <addFloat32Sigs+0x5c>
        z = a;
    }
    else if ( count < 32 ) {
    1048:	34 01 00 1f 	mvi r1,31
    104c:	48 41 00 14 	bg r2,r1,109c <addFloat32Sigs+0x18c>
        z = ( a>>count ) | ( ( a<<( ( - count ) & 31 ) ) != 0 );
    1050:	bd 49 08 00 	sl r1,r10,r9
    1054:	81 42 10 00 	sru r2,r10,r2
    1058:	7c 21 00 00 	cmpnei r1,r1,0
    105c:	b8 22 50 00 	or r10,r1,r2
    1060:	e3 ff ff c3 	bi f6c <addFloat32Sigs+0x5c>
significand.
-------------------------------------------------------------------------------
*/
INLINE float32 packFloat32( flag zSign, int16 zExp, bits32 zSig )
{
    return ( ( (bits32) zSign )<<31 ) + ( ( (bits32) zExp )<<23 ) + zSig;
    1064:	b4 8a 08 00 	add r1,r4,r10
    1068:	00 21 00 06 	srui r1,r1,6
    106c:	3f a2 00 1f 	sli r2,ra,31
    1070:	b4 22 40 00 	add r8,r1,r2
    1074:	e3 ff ff c9 	bi f98 <addFloat32Sigs+0x88>
        if ( bExp == 0xFF ) {
            if ( bSig ) return propagateFloat32NaN( a, b );
            return packFloat32( zSign, 0xFF, 0 );
        }
        if ( aExp == 0 ) {
            ++expDiff;
    1078:	35 29 00 01 	addi r9,r9,1
    107c:	78 08 20 00 	mvhi r8,0x2000
    1080:	e3 ff ff ef 	bi 103c <addFloat32Sigs+0x12c>
        shift32RightJamming( bSig, expDiff, &bSig );
        zExp = aExp;
    }
    else if ( expDiff < 0 ) {
        if ( bExp == 0xFF ) {
            if ( bSig ) return propagateFloat32NaN( a, b );
    1084:	5c 80 ff ca 	bne r4,r0,fac <addFloat32Sigs+0x9c>
significand.
-------------------------------------------------------------------------------
*/
INLINE float32 packFloat32( flag zSign, int16 zExp, bits32 zSig )
{
    return ( ( (bits32) zSign )<<31 ) + ( ( (bits32) zExp )<<23 ) + zSig;
    1088:	3f a2 00 1f 	sli r2,ra,31
    108c:	78 01 7f 80 	mvhi r1,0x7f80
    1090:	38 21 00 00 	ori r1,r1,0x0
    1094:	b4 41 40 00 	add r8,r2,r1
    1098:	e3 ff ff c0 	bi f98 <addFloat32Sigs+0x88>
    }
    else {
        z = ( a != 0 );
    109c:	7d 4a 00 00 	cmpnei r10,r10,0
    10a0:	e3 ff ff b3 	bi f6c <addFloat32Sigs+0x5c>

000010a4 <subFloat32Sigs>:
result is a NaN.  The subtraction is performed according to the IEC/IEEE
Standard for Binary Floating-point Arithmetic.
-------------------------------------------------------------------------------
*/
static float32 subFloat32Sigs( float32 a, float32 b, flag zSign )
{
    10a4:	37 9c ff fc 	addi sp,sp,-4
    10a8:	5b 9d 00 04 	sw (sp+4),ra
-------------------------------------------------------------------------------
*/
INLINE int16 extractFloat32Exp( float32 a )
{

    return ( a>>23 ) & 0xFF;
    10ac:	00 26 00 17 	srui r6,r1,23
    aSig = extractFloat32Frac( a );
    aExp = extractFloat32Exp( a );
    bSig = extractFloat32Frac( b );
    bExp = extractFloat32Exp( b );
    expDiff = aExp - bExp;
    aSig <<= 7;
    10b0:	00 47 00 17 	srui r7,r2,23
    10b4:	78 04 00 7f 	mvhi r4,0x7f
    10b8:	38 84 ff ff 	ori r4,r4,0xffff
-------------------------------------------------------------------------------
*/
INLINE int16 extractFloat32Exp( float32 a )
{

    return ( a>>23 ) & 0xFF;
    10bc:	20 c6 00 ff 	andi r6,r6,0xff
    10c0:	20 e7 00 ff 	andi r7,r7,0xff
    aExp = extractFloat32Exp( a );
    bSig = extractFloat32Frac( b );
    bExp = extractFloat32Exp( b );
    expDiff = aExp - bExp;
    aSig <<= 7;
    bSig <<= 7;
    10c4:	a0 44 28 00 	and r5,r2,r4

    aSig = extractFloat32Frac( a );
    aExp = extractFloat32Exp( a );
    bSig = extractFloat32Frac( b );
    bExp = extractFloat32Exp( b );
    expDiff = aExp - bExp;
    10c8:	c8 c7 48 00 	sub r9,r6,r7
    aSig <<= 7;
    10cc:	a0 24 20 00 	and r4,r1,r4
result is a NaN.  The subtraction is performed according to the IEC/IEEE
Standard for Binary Floating-point Arithmetic.
-------------------------------------------------------------------------------
*/
static float32 subFloat32Sigs( float32 a, float32 b, flag zSign )
{
    10d0:	b8 20 40 00 	mv r8,r1
    10d4:	b8 60 50 00 	mv r10,r3
    aSig = extractFloat32Frac( a );
    aExp = extractFloat32Exp( a );
    bSig = extractFloat32Frac( b );
    bExp = extractFloat32Exp( b );
    expDiff = aExp - bExp;
    aSig <<= 7;
    10d8:	3c 84 00 07 	sli r4,r4,7
    bSig <<= 7;
    10dc:	3c a5 00 07 	sli r5,r5,7
    if ( 0 < expDiff ) goto aExpBigger;
    10e0:	49 20 00 0f 	bg r9,r0,111c <subFloat32Sigs+0x78>
    if ( expDiff < 0 ) goto bExpBigger;
    10e4:	5d 20 00 3b 	bne r9,r0,11d0 <subFloat32Sigs+0x12c>
    if ( aExp == 0xFF ) {
    10e8:	34 03 00 ff 	mvi r3,255
    10ec:	44 c3 00 30 	be r6,r3,11ac <subFloat32Sigs+0x108>
        if ( aSig | bSig ) return propagateFloat32NaN( a, b );
        float_raise( float_flag_invalid );
        return float32_default_nan;
    }
    if ( aExp == 0 ) {
    10f0:	5c c0 00 03 	bne r6,r0,10fc <subFloat32Sigs+0x58>
    10f4:	34 06 00 01 	mvi r6,1
    10f8:	b8 c0 38 00 	mv r7,r6
        aExp = 1;
        bExp = 1;
    }
    if ( bSig < aSig ) goto aBigger;
    10fc:	54 85 00 10 	bgu r4,r5,113c <subFloat32Sigs+0x98>
    if ( aSig < bSig ) goto bBigger;
    1100:	54 a4 00 45 	bgu r5,r4,1214 <subFloat32Sigs+0x170>
significand.
-------------------------------------------------------------------------------
*/
INLINE float32 packFloat32( flag zSign, int16 zExp, bits32 zSig )
{
    return ( ( (bits32) zSign )<<31 ) + ( ( (bits32) zExp )<<23 ) + zSig;
    1104:	78 01 00 00 	mvhi r1,0x0
    1108:	38 21 28 e8 	ori r1,r1,0x28e8
    110c:	28 22 00 00 	lw r2,(r1+0)
    1110:	64 42 00 03 	cmpei r2,r2,3
    1114:	3c 48 00 1f 	sli r8,r2,31
    1118:	e0 00 00 0f 	bi 1154 <subFloat32Sigs+0xb0>
    zSig = bSig - aSig;
    zExp = bExp;
    zSign ^= 1;
    goto normalizeRoundAndPack;
 aExpBigger:
    if ( aExp == 0xFF ) {
    111c:	34 03 00 ff 	mvi r3,255
    1120:	44 c3 00 11 	be r6,r3,1164 <subFloat32Sigs+0xc0>
        if ( aSig ) return propagateFloat32NaN( a, b );
        return a;
    }
    if ( bExp == 0 ) {
    1124:	5c e0 00 14 	bne r7,r0,1174 <subFloat32Sigs+0xd0>
        --expDiff;
    1128:	35 29 ff ff 	addi r9,r9,-1
    112c:	78 08 40 00 	mvhi r8,0x4000
*/
INLINE void shift32RightJamming( bits32 a, int16 count, bits32 *zPtr )
{
    bits32 z;

    if ( count == 0 ) {
    1130:	5d 27 00 15 	bne r9,r7,1184 <subFloat32Sigs+0xe0>
    }
    else {
        bSig |= 0x40000000;
    }
    shift32RightJamming( bSig, expDiff, &bSig );
    aSig |= 0x40000000;
    1134:	39 08 00 00 	ori r8,r8,0x0
    1138:	b8 88 20 00 	or r4,r4,r8
 aBigger:
    zSig = aSig - bSig;
    113c:	c8 85 18 00 	sub r3,r4,r5
    1140:	b8 c0 10 00 	mv r2,r6
    zExp = aExp;
 normalizeRoundAndPack:
    --zExp;
    return normalizeRoundAndPackFloat32( zSign, zExp, zSig );
    1144:	b9 40 08 00 	mv r1,r10
    1148:	34 42 ff ff 	addi r2,r2,-1
    114c:	fb ff fe 51 	calli a90 <normalizeRoundAndPackFloat32>
    1150:	b8 20 40 00 	mv r8,r1

}
    1154:	b9 00 08 00 	mv r1,r8
    1158:	2b 9d 00 04 	lw ra,(sp+4)
    115c:	37 9c 00 04 	addi sp,sp,4
    1160:	c3 a0 00 00 	ret
    zExp = bExp;
    zSign ^= 1;
    goto normalizeRoundAndPack;
 aExpBigger:
    if ( aExp == 0xFF ) {
        if ( aSig ) return propagateFloat32NaN( a, b );
    1164:	44 80 ff fc 	be r4,r0,1154 <subFloat32Sigs+0xb0>
    1168:	fb ff fd b7 	calli 844 <propagateFloat32NaN>
    116c:	b8 20 40 00 	mv r8,r1
    1170:	e3 ff ff f9 	bi 1154 <subFloat32Sigs+0xb0>
    }
    if ( bExp == 0 ) {
        --expDiff;
    }
    else {
        bSig |= 0x40000000;
    1174:	78 08 40 00 	mvhi r8,0x4000
    1178:	b9 00 08 00 	mv r1,r8
    117c:	38 21 00 00 	ori r1,r1,0x0
    1180:	b8 a1 28 00 	or r5,r5,r1
        z = a;
    }
    else if ( count < 32 ) {
    1184:	34 01 00 1f 	mvi r1,31
    1188:	49 21 00 07 	bg r9,r1,11a4 <subFloat32Sigs+0x100>
        z = ( a>>count ) | ( ( a<<( ( - count ) & 31 ) ) != 0 );
    118c:	c8 09 08 00 	sub r1,r0,r9
    1190:	bc a1 08 00 	sl r1,r5,r1
    1194:	80 a9 10 00 	sru r2,r5,r9
    1198:	7c 21 00 00 	cmpnei r1,r1,0
    119c:	b8 22 28 00 	or r5,r1,r2
    11a0:	e3 ff ff e5 	bi 1134 <subFloat32Sigs+0x90>
    }
    else {
        z = ( a != 0 );
    11a4:	7c a5 00 00 	cmpnei r5,r5,0
    11a8:	e3 ff ff e3 	bi 1134 <subFloat32Sigs+0x90>
    aSig <<= 7;
    bSig <<= 7;
    if ( 0 < expDiff ) goto aExpBigger;
    if ( expDiff < 0 ) goto bExpBigger;
    if ( aExp == 0xFF ) {
        if ( aSig | bSig ) return propagateFloat32NaN( a, b );
    11ac:	b8 a4 18 00 	or r3,r5,r4
    11b0:	5c 60 ff ee 	bne r3,r0,1168 <subFloat32Sigs+0xc4>
    11b4:	78 02 00 00 	mvhi r2,0x0
    11b8:	38 42 28 ec 	ori r2,r2,0x28ec
    11bc:	28 41 00 00 	lw r1,(r2+0)
    11c0:	34 08 ff ff 	mvi r8,-1
    11c4:	38 21 00 10 	ori r1,r1,0x10
    11c8:	58 41 00 00 	sw (r2+0),r1
    11cc:	e3 ff ff e2 	bi 1154 <subFloat32Sigs+0xb0>
    }
    if ( bSig < aSig ) goto aBigger;
    if ( aSig < bSig ) goto bBigger;
    return packFloat32( float_rounding_mode == float_round_down, 0, 0 );
 bExpBigger:
    if ( bExp == 0xFF ) {
    11d0:	34 03 00 ff 	mvi r3,255
    11d4:	44 e3 00 17 	be r7,r3,1230 <subFloat32Sigs+0x18c>
        if ( bSig ) return propagateFloat32NaN( a, b );
        return packFloat32( zSign ^ 1, 0xFF, 0 );
    }
    if ( aExp == 0 ) {
    11d8:	44 c0 00 13 	be r6,r0,1224 <subFloat32Sigs+0x180>
        ++expDiff;
    }
    else {
        aSig |= 0x40000000;
    11dc:	78 08 40 00 	mvhi r8,0x4000
    11e0:	b9 00 08 00 	mv r1,r8
    11e4:	38 21 00 00 	ori r1,r1,0x0
    11e8:	b8 81 20 00 	or r4,r4,r1
    }
    shift32RightJamming( aSig, - expDiff, &aSig );
    11ec:	c8 09 10 00 	sub r2,r0,r9
*/
INLINE void shift32RightJamming( bits32 a, int16 count, bits32 *zPtr )
{
    bits32 z;

    if ( count == 0 ) {
    11f0:	44 40 00 07 	be r2,r0,120c <subFloat32Sigs+0x168>
        z = a;
    }
    else if ( count < 32 ) {
    11f4:	34 01 00 1f 	mvi r1,31
    11f8:	48 41 00 15 	bg r2,r1,124c <subFloat32Sigs+0x1a8>
        z = ( a>>count ) | ( ( a<<( ( - count ) & 31 ) ) != 0 );
    11fc:	bc 89 08 00 	sl r1,r4,r9
    1200:	80 82 10 00 	sru r2,r4,r2
    1204:	7c 21 00 00 	cmpnei r1,r1,0
    1208:	b8 22 20 00 	or r4,r1,r2
    bSig |= 0x40000000;
    120c:	39 08 00 00 	ori r8,r8,0x0
    1210:	b8 a8 28 00 	or r5,r5,r8
 bBigger:
    zSig = bSig - aSig;
    1214:	c8 a4 18 00 	sub r3,r5,r4
    zExp = bExp;
    zSign ^= 1;
    1218:	19 4a 00 01 	xori r10,r10,0x1
    121c:	b8 e0 10 00 	mv r2,r7
    1220:	e3 ff ff c9 	bi 1144 <subFloat32Sigs+0xa0>
    if ( bExp == 0xFF ) {
        if ( bSig ) return propagateFloat32NaN( a, b );
        return packFloat32( zSign ^ 1, 0xFF, 0 );
    }
    if ( aExp == 0 ) {
        ++expDiff;
    1224:	35 29 00 01 	addi r9,r9,1
    1228:	78 08 40 00 	mvhi r8,0x4000
    122c:	e3 ff ff f0 	bi 11ec <subFloat32Sigs+0x148>
    if ( bSig < aSig ) goto aBigger;
    if ( aSig < bSig ) goto bBigger;
    return packFloat32( float_rounding_mode == float_round_down, 0, 0 );
 bExpBigger:
    if ( bExp == 0xFF ) {
        if ( bSig ) return propagateFloat32NaN( a, b );
    1230:	5c a0 ff ce 	bne r5,r0,1168 <subFloat32Sigs+0xc4>
significand.
-------------------------------------------------------------------------------
*/
INLINE float32 packFloat32( flag zSign, int16 zExp, bits32 zSig )
{
    return ( ( (bits32) zSign )<<31 ) + ( ( (bits32) zExp )<<23 ) + zSig;
    1234:	19 42 00 01 	xori r2,r10,0x1
    1238:	3c 42 00 1f 	sli r2,r2,31
    123c:	78 01 7f 80 	mvhi r1,0x7f80
    1240:	38 21 00 00 	ori r1,r1,0x0
    1244:	b4 41 40 00 	add r8,r2,r1
    1248:	e3 ff ff c3 	bi 1154 <subFloat32Sigs+0xb0>
    }
    else {
        z = ( a != 0 );
    124c:	7c 84 00 00 	cmpnei r4,r4,0
    1250:	e3 ff ff ef 	bi 120c <subFloat32Sigs+0x168>

00001254 <float32_add>:
and `b'.  The operation is performed according to the IEC/IEEE Standard for
Binary Floating-point Arithmetic.
-------------------------------------------------------------------------------
*/
float32 float32_add( float32 a, float32 b )
{
    1254:	37 9c ff fc 	addi sp,sp,-4
    1258:	5b 9d 00 04 	sw (sp+4),ra
-------------------------------------------------------------------------------
*/
INLINE flag extractFloat32Sign( float32 a )
{

    return a>>31;
    125c:	00 24 00 1f 	srui r4,r1,31
{
    flag aSign, bSign;

    aSign = extractFloat32Sign( a );
    bSign = extractFloat32Sign( b );
    if ( aSign == bSign ) {
    1260:	00 43 00 1f 	srui r3,r2,31
    1264:	44 83 00 06 	be r4,r3,127c <float32_add+0x28>
        return addFloat32Sigs( a, b, aSign );
    }
    else {
        return subFloat32Sigs( a, b, aSign );
    1268:	b8 80 18 00 	mv r3,r4
    126c:	fb ff ff 8e 	calli 10a4 <subFloat32Sigs>
    }

}
    1270:	2b 9d 00 04 	lw ra,(sp+4)
    1274:	37 9c 00 04 	addi sp,sp,4
    1278:	c3 a0 00 00 	ret
    flag aSign, bSign;

    aSign = extractFloat32Sign( a );
    bSign = extractFloat32Sign( b );
    if ( aSign == bSign ) {
        return addFloat32Sigs( a, b, aSign );
    127c:	b8 80 18 00 	mv r3,r4
    1280:	fb ff ff 24 	calli f10 <addFloat32Sigs>
    }
    else {
        return subFloat32Sigs( a, b, aSign );
    }

}
    1284:	2b 9d 00 04 	lw ra,(sp+4)
    1288:	37 9c 00 04 	addi sp,sp,4
    128c:	c3 a0 00 00 	ret

00001290 <float32_sub>:
`a' and `b'.  The operation is performed according to the IEC/IEEE Standard
for Binary Floating-point Arithmetic.
-------------------------------------------------------------------------------
*/
float32 float32_sub( float32 a, float32 b )
{
    1290:	37 9c ff fc 	addi sp,sp,-4
    1294:	5b 9d 00 04 	sw (sp+4),ra
-------------------------------------------------------------------------------
*/
INLINE flag extractFloat32Sign( float32 a )
{

    return a>>31;
    1298:	00 24 00 1f 	srui r4,r1,31
{
    flag aSign, bSign;

    aSign = extractFloat32Sign( a );
    bSign = extractFloat32Sign( b );
    if ( aSign == bSign ) {
    129c:	00 43 00 1f 	srui r3,r2,31
    12a0:	44 83 00 06 	be r4,r3,12b8 <float32_sub+0x28>
        return subFloat32Sigs( a, b, aSign );
    }
    else {
        return addFloat32Sigs( a, b, aSign );
    12a4:	b8 80 18 00 	mv r3,r4
    12a8:	fb ff ff 1a 	calli f10 <addFloat32Sigs>
    }

}
    12ac:	2b 9d 00 04 	lw ra,(sp+4)
    12b0:	37 9c 00 04 	addi sp,sp,4
    12b4:	c3 a0 00 00 	ret
    flag aSign, bSign;

    aSign = extractFloat32Sign( a );
    bSign = extractFloat32Sign( b );
    if ( aSign == bSign ) {
        return subFloat32Sigs( a, b, aSign );
    12b8:	b8 80 18 00 	mv r3,r4
    12bc:	fb ff ff 7a 	calli 10a4 <subFloat32Sigs>
    }
    else {
        return addFloat32Sigs( a, b, aSign );
    }

}
    12c0:	2b 9d 00 04 	lw ra,(sp+4)
    12c4:	37 9c 00 04 	addi sp,sp,4
    12c8:	c3 a0 00 00 	ret

000012cc <float32_mul>:
`a' and `b'.  The operation is performed according to the IEC/IEEE Standard
for Binary Floating-point Arithmetic.
-------------------------------------------------------------------------------
*/
float32 float32_mul( float32 a, float32 b )
{
    12cc:	37 9c ff f4 	addi sp,sp,-12
    12d0:	5b 8b 00 0c 	sw (sp+12),r11
    12d4:	5b 8c 00 08 	sw (sp+8),r12
    12d8:	5b 9d 00 04 	sw (sp+4),ra
-------------------------------------------------------------------------------
*/
INLINE int16 extractFloat32Exp( float32 a )
{

    return ( a>>23 ) & 0xFF;
    12dc:	00 24 00 17 	srui r4,r1,23
-------------------------------------------------------------------------------
*/
INLINE bits32 extractFloat32Frac( float32 a )
{

    return a & 0x007FFFFF;
    12e0:	78 03 00 7f 	mvhi r3,0x7f
-------------------------------------------------------------------------------
*/
INLINE int16 extractFloat32Exp( float32 a )
{

    return ( a>>23 ) & 0xFF;
    12e4:	00 46 00 17 	srui r6,r2,23
-------------------------------------------------------------------------------
*/
INLINE bits32 extractFloat32Frac( float32 a )
{

    return a & 0x007FFFFF;
    12e8:	38 63 ff ff 	ori r3,r3,0xffff
-------------------------------------------------------------------------------
*/
INLINE int16 extractFloat32Exp( float32 a )
{

    return ( a>>23 ) & 0xFF;
    12ec:	20 8a 00 ff 	andi r10,r4,0xff
    aExp = extractFloat32Exp( a );
    aSign = extractFloat32Sign( a );
    bSig = extractFloat32Frac( b );
    bExp = extractFloat32Exp( b );
    bSign = extractFloat32Sign( b );
    zSign = aSign ^ bSign;
    12f0:	98 22 28 00 	xor r5,r1,r2
    if ( aExp == 0xFF ) {
    12f4:	34 09 00 ff 	mvi r9,255
`a' and `b'.  The operation is performed according to the IEC/IEEE Standard
for Binary Floating-point Arithmetic.
-------------------------------------------------------------------------------
*/
float32 float32_mul( float32 a, float32 b )
{
    12f8:	b8 20 38 00 	mv r7,r1
    12fc:	b8 40 40 00 	mv r8,r2
-------------------------------------------------------------------------------
*/
INLINE bits32 extractFloat32Frac( float32 a )
{

    return a & 0x007FFFFF;
    1300:	a0 43 58 00 	and r11,r2,r3
-------------------------------------------------------------------------------
*/
INLINE int16 extractFloat32Exp( float32 a )
{

    return ( a>>23 ) & 0xFF;
    1304:	a0 c9 20 00 	and r4,r6,r9
    aExp = extractFloat32Exp( a );
    aSign = extractFloat32Sign( a );
    bSig = extractFloat32Frac( b );
    bExp = extractFloat32Exp( b );
    bSign = extractFloat32Sign( b );
    zSign = aSign ^ bSign;
    1308:	00 ac 00 1f 	srui r12,r5,31
-------------------------------------------------------------------------------
*/
INLINE bits32 extractFloat32Frac( float32 a )
{

    return a & 0x007FFFFF;
    130c:	a0 23 e8 00 	and ra,r1,r3
    aSign = extractFloat32Sign( a );
    bSig = extractFloat32Frac( b );
    bExp = extractFloat32Exp( b );
    bSign = extractFloat32Sign( b );
    zSign = aSign ^ bSign;
    if ( aExp == 0xFF ) {
    1310:	45 49 00 61 	be r10,r9,1494 <float32_mul+0x1c8>
            float_raise( float_flag_invalid );
            return float32_default_nan;
        }
        return packFloat32( zSign, 0xFF, 0 );
    }
    if ( bExp == 0xFF ) {
    1314:	44 89 00 51 	be r4,r9,1458 <float32_mul+0x18c>
            float_raise( float_flag_invalid );
            return float32_default_nan;
        }
        return packFloat32( zSign, 0xFF, 0 );
    }
    if ( aExp == 0 ) {
    1318:	5d 40 00 13 	bne r10,r0,1364 <float32_mul+0x98>
significand.
-------------------------------------------------------------------------------
*/
INLINE float32 packFloat32( flag zSign, int16 zExp, bits32 zSig )
{
    return ( ( (bits32) zSign )<<31 ) + ( ( (bits32) zExp )<<23 ) + zSig;
    131c:	3d 85 00 1f 	sli r5,r12,31
            return float32_default_nan;
        }
        return packFloat32( zSign, 0xFF, 0 );
    }
    if ( aExp == 0 ) {
        if ( aSig == 0 ) return packFloat32( zSign, 0, 0 );
    1320:	47 aa 00 48 	be ra,r10,1440 <float32_mul+0x174>
        0, 0, 0, 0, 0, 0, 0, 0, 0, 0, 0, 0, 0, 0, 0, 0
    };
    int8 shiftCount;
      
    shiftCount = 0;
    if ( a < 0x10000 ) {
    1324:	38 01 ff ff 	mvu r1,0xffff
    1328:	50 3d 00 77 	bgeu r1,ra,1504 <float32_mul+0x238>
    132c:	bb a0 18 00 	mv r3,ra
    1330:	34 02 00 08 	mvi r2,8
        shiftCount += 16;
        a <<= 16;
    }
    if ( a < 0x1000000 ) {
        shiftCount += 8;
        a <<= 8;
    1334:	3c 63 00 08 	sli r3,r3,8
    1338:	34 45 ff f8 	addi r5,r2,-8
static void
 normalizeFloat32Subnormal( bits32 aSig, int16 *zExpPtr, bits32 *zSigPtr )
{
    int8 shiftCount;

    shiftCount = countLeadingZeros32( aSig ) - 8;
    133c:	00 63 00 18 	srui r3,r3,24
    1340:	78 01 00 00 	mvhi r1,0x0
    1344:	3c 63 00 02 	sli r3,r3,2
    1348:	38 21 24 90 	ori r1,r1,0x2490
    134c:	b4 23 08 00 	add r1,r1,r3
    1350:	28 22 00 00 	lw r2,(r1+0)
    *zSigPtr = aSig<<shiftCount;
    *zExpPtr = 1 - shiftCount;
    1354:	34 01 00 01 	mvi r1,1
static void
 normalizeFloat32Subnormal( bits32 aSig, int16 *zExpPtr, bits32 *zSigPtr )
{
    int8 shiftCount;

    shiftCount = countLeadingZeros32( aSig ) - 8;
    1358:	b4 a2 10 00 	add r2,r5,r2
    *zSigPtr = aSig<<shiftCount;
    135c:	bf a2 e8 00 	sl ra,ra,r2
    *zExpPtr = 1 - shiftCount;
    1360:	c8 22 50 00 	sub r10,r1,r2
    }
    if ( aExp == 0 ) {
        if ( aSig == 0 ) return packFloat32( zSign, 0, 0 );
        normalizeFloat32Subnormal( aSig, &aExp, &aSig );
    }
    if ( bExp == 0 ) {
    1364:	5c 80 00 13 	bne r4,r0,13b0 <float32_mul+0xe4>
significand.
-------------------------------------------------------------------------------
*/
INLINE float32 packFloat32( flag zSign, int16 zExp, bits32 zSig )
{
    return ( ( (bits32) zSign )<<31 ) + ( ( (bits32) zExp )<<23 ) + zSig;
    1368:	3d 85 00 1f 	sli r5,r12,31
    if ( aExp == 0 ) {
        if ( aSig == 0 ) return packFloat32( zSign, 0, 0 );
        normalizeFloat32Subnormal( aSig, &aExp, &aSig );
    }
    if ( bExp == 0 ) {
        if ( bSig == 0 ) return packFloat32( zSign, 0, 0 );
    136c:	45 64 00 35 	be r11,r4,1440 <float32_mul+0x174>
        0, 0, 0, 0, 0, 0, 0, 0, 0, 0, 0, 0, 0, 0, 0, 0
    };
    int8 shiftCount;
      
    shiftCount = 0;
    if ( a < 0x10000 ) {
    1370:	38 01 ff ff 	mvu r1,0xffff
    1374:	50 2b 00 6a 	bgeu r1,r11,151c <float32_mul+0x250>
    1378:	b9 60 18 00 	mv r3,r11
    137c:	34 02 00 08 	mvi r2,8
        shiftCount += 16;
        a <<= 16;
    }
    if ( a < 0x1000000 ) {
        shiftCount += 8;
        a <<= 8;
    1380:	3c 63 00 08 	sli r3,r3,8
    1384:	34 44 ff f8 	addi r4,r2,-8
static void
 normalizeFloat32Subnormal( bits32 aSig, int16 *zExpPtr, bits32 *zSigPtr )
{
    int8 shiftCount;

    shiftCount = countLeadingZeros32( aSig ) - 8;
    1388:	00 63 00 18 	srui r3,r3,24
    138c:	78 01 00 00 	mvhi r1,0x0
    1390:	3c 63 00 02 	sli r3,r3,2
    1394:	38 21 24 90 	ori r1,r1,0x2490
    1398:	b4 23 08 00 	add r1,r1,r3
    139c:	28 22 00 00 	lw r2,(r1+0)
    *zSigPtr = aSig<<shiftCount;
    *zExpPtr = 1 - shiftCount;
    13a0:	34 01 00 01 	mvi r1,1
static void
 normalizeFloat32Subnormal( bits32 aSig, int16 *zExpPtr, bits32 *zSigPtr )
{
    int8 shiftCount;

    shiftCount = countLeadingZeros32( aSig ) - 8;
    13a4:	b4 82 10 00 	add r2,r4,r2
    *zSigPtr = aSig<<shiftCount;
    13a8:	bd 62 58 00 	sl r11,r11,r2
    *zExpPtr = 1 - shiftCount;
    13ac:	c8 22 20 00 	sub r4,r1,r2
    if ( bExp == 0 ) {
        if ( bSig == 0 ) return packFloat32( zSign, 0, 0 );
        normalizeFloat32Subnormal( bSig, &bExp, &bSig );
    }
    zExp = aExp + bExp - 0x7F;
    aSig = ( aSig | 0x00800000 )<<7;
    13b0:	78 01 00 80 	mvhi r1,0x80
    13b4:	38 21 00 00 	ori r1,r1,0x0
    bSig = ( bSig | 0x00800000 )<<8;
    13b8:	b9 61 10 00 	or r2,r11,r1
    if ( bExp == 0 ) {
        if ( bSig == 0 ) return packFloat32( zSign, 0, 0 );
        normalizeFloat32Subnormal( bSig, &bExp, &bSig );
    }
    zExp = aExp + bExp - 0x7F;
    aSig = ( aSig | 0x00800000 )<<7;
    13bc:	bb a1 08 00 	or r1,ra,r1
    13c0:	3c 21 00 07 	sli r1,r1,7
    bSig = ( bSig | 0x00800000 )<<8;
    13c4:	3c 42 00 08 	sli r2,r2,8
    aHigh = a>>16;
    bLow = b;
    bHigh = b>>16;
    z1 = ( (bits32) aLow ) * bLow;
    zMiddleA = ( (bits32) aLow ) * bHigh;
    zMiddleB = ( (bits32) aHigh ) * bLow;
    13c8:	00 3d 00 10 	srui ra,r1,16
    aLow = a;
    aHigh = a>>16;
    bLow = b;
    bHigh = b>>16;
    z1 = ( (bits32) aLow ) * bLow;
    zMiddleA = ( (bits32) aLow ) * bHigh;
    13cc:	00 4b 00 10 	srui r11,r2,16

    aLow = a;
    aHigh = a>>16;
    bLow = b;
    bHigh = b>>16;
    z1 = ( (bits32) aLow ) * bLow;
    13d0:	20 29 ff ff 	andi r9,r1,0xffff
    13d4:	20 48 ff ff 	andi r8,r2,0xffff
    zMiddleA = ( (bits32) aLow ) * bHigh;
    13d8:	89 69 18 00 	mul r3,r11,r9
    zMiddleB = ( (bits32) aHigh ) * bLow;
    13dc:	89 1d 10 00 	mul r2,r8,ra
    }
    if ( bExp == 0 ) {
        if ( bSig == 0 ) return packFloat32( zSign, 0, 0 );
        normalizeFloat32Subnormal( bSig, &bExp, &bSig );
    }
    zExp = aExp + bExp - 0x7F;
    13e0:	35 41 ff 81 	addi r1,r10,-127
    13e4:	b4 24 30 00 	add r6,r1,r4
    z0 = ( (bits32) aHigh ) * bHigh;
    zMiddleA += zMiddleB;
    13e8:	b4 62 08 00 	add r1,r3,r2
    z0 += ( ( (bits32) ( zMiddleA < zMiddleB ) )<<16 ) + ( zMiddleA>>16 );
    13ec:	54 41 00 36 	bgu r2,r1,14c4 <float32_mul+0x1f8>
    13f0:	34 07 00 00 	mvi r7,0

    aLow = a;
    aHigh = a>>16;
    bLow = b;
    bHigh = b>>16;
    z1 = ( (bits32) aLow ) * bLow;
    13f4:	89 09 18 00 	mul r3,r8,r9
    zMiddleA = ( (bits32) aLow ) * bHigh;
    zMiddleB = ( (bits32) aHigh ) * bLow;
    z0 = ( (bits32) aHigh ) * bHigh;
    zMiddleA += zMiddleB;
    z0 += ( ( (bits32) ( zMiddleA < zMiddleB ) )<<16 ) + ( zMiddleA>>16 );
    zMiddleA <<= 16;
    13f8:	3c 22 00 10 	sli r2,r1,16
    z1 = ( (bits32) aLow ) * bLow;
    zMiddleA = ( (bits32) aLow ) * bHigh;
    zMiddleB = ( (bits32) aHigh ) * bLow;
    z0 = ( (bits32) aHigh ) * bHigh;
    zMiddleA += zMiddleB;
    z0 += ( ( (bits32) ( zMiddleA < zMiddleB ) )<<16 ) + ( zMiddleA>>16 );
    13fc:	89 7d 20 00 	mul r4,r11,ra
    zMiddleA <<= 16;
    z1 += zMiddleA;
    1400:	b4 43 18 00 	add r3,r2,r3
    z1 = ( (bits32) aLow ) * bLow;
    zMiddleA = ( (bits32) aLow ) * bHigh;
    zMiddleB = ( (bits32) aHigh ) * bLow;
    z0 = ( (bits32) aHigh ) * bHigh;
    zMiddleA += zMiddleB;
    z0 += ( ( (bits32) ( zMiddleA < zMiddleB ) )<<16 ) + ( zMiddleA>>16 );
    1404:	00 21 00 10 	srui r1,r1,16
    1408:	f4 43 10 00 	cmpgu r2,r2,r3
    140c:	b4 24 08 00 	add r1,r1,r4
    1410:	b4 22 08 00 	add r1,r1,r2
    aSig = ( aSig | 0x00800000 )<<7;
    bSig = ( bSig | 0x00800000 )<<8;
    mul32To64( aSig, bSig, &zSig0, &zSig1 );
    zSig0 |= ( zSig1 != 0 );
    1414:	7c 63 00 00 	cmpnei r3,r3,0
    1418:	b4 27 08 00 	add r1,r1,r7
    141c:	b8 23 18 00 	or r3,r1,r3
    if ( 0 <= (sbits32) ( zSig0<<1 ) ) {
    1420:	b4 63 08 00 	add r1,r3,r3
    1424:	48 01 00 03 	bg r0,r1,1430 <float32_mul+0x164>
        zSig0 <<= 1;
        --zExp;
    1428:	34 c6 ff ff 	addi r6,r6,-1
    142c:	b8 20 18 00 	mv r3,r1
    }
    return roundAndPackFloat32( zSign, zExp, zSig0 );
    1430:	b9 80 08 00 	mv r1,r12
    1434:	b8 c0 10 00 	mv r2,r6
    1438:	fb ff fd 32 	calli 900 <roundAndPackFloat32>
    143c:	b8 20 28 00 	mv r5,r1

}
    1440:	b8 a0 08 00 	mv r1,r5
    1444:	2b 9d 00 04 	lw ra,(sp+4)
    1448:	2b 8b 00 0c 	lw r11,(sp+12)
    144c:	2b 8c 00 08 	lw r12,(sp+8)
    1450:	37 9c 00 0c 	addi sp,sp,12
    1454:	c3 a0 00 00 	ret
            return float32_default_nan;
        }
        return packFloat32( zSign, 0xFF, 0 );
    }
    if ( bExp == 0xFF ) {
        if ( bSig ) return propagateFloat32NaN( a, b );
    1458:	5d 60 00 28 	bne r11,r0,14f8 <float32_mul+0x22c>
        if ( ( aExp | aSig ) == 0 ) {
    145c:	b9 5d 08 00 	or r1,r10,ra
    1460:	5c 2b 00 14 	bne r1,r11,14b0 <float32_mul+0x1e4>
    1464:	78 02 00 00 	mvhi r2,0x0
    1468:	38 42 28 ec 	ori r2,r2,0x28ec
    146c:	28 41 00 00 	lw r1,(r2+0)
    1470:	34 05 ff ff 	mvi r5,-1
    1474:	38 21 00 10 	ori r1,r1,0x10
    1478:	58 41 00 00 	sw (r2+0),r1
        zSig0 <<= 1;
        --zExp;
    }
    return roundAndPackFloat32( zSign, zExp, zSig0 );

}
    147c:	b8 a0 08 00 	mv r1,r5
    1480:	2b 9d 00 04 	lw ra,(sp+4)
    1484:	2b 8b 00 0c 	lw r11,(sp+12)
    1488:	2b 8c 00 08 	lw r12,(sp+8)
    148c:	37 9c 00 0c 	addi sp,sp,12
    1490:	c3 a0 00 00 	ret
    bSig = extractFloat32Frac( b );
    bExp = extractFloat32Exp( b );
    bSign = extractFloat32Sign( b );
    zSign = aSign ^ bSign;
    if ( aExp == 0xFF ) {
        if ( aSig || ( ( bExp == 0xFF ) && bSig ) ) {
    1494:	5f a0 00 0f 	bne ra,r0,14d0 <float32_mul+0x204>
    1498:	e4 89 10 00 	cmpe r2,r4,r9
    149c:	7d 61 00 00 	cmpnei r1,r11,0
    14a0:	a0 41 10 00 	and r2,r2,r1
    14a4:	5c 5d 00 0b 	bne r2,ra,14d0 <float32_mul+0x204>
            return propagateFloat32NaN( a, b );
        }
        if ( ( bExp | bSig ) == 0 ) {
    14a8:	b8 8b 08 00 	or r1,r4,r11
    14ac:	44 22 ff ee 	be r1,r2,1464 <float32_mul+0x198>
significand.
-------------------------------------------------------------------------------
*/
INLINE float32 packFloat32( flag zSign, int16 zExp, bits32 zSig )
{
    return ( ( (bits32) zSign )<<31 ) + ( ( (bits32) zExp )<<23 ) + zSig;
    14b0:	3d 82 00 1f 	sli r2,r12,31
    14b4:	78 01 7f 80 	mvhi r1,0x7f80
    14b8:	38 21 00 00 	ori r1,r1,0x0
    14bc:	b4 41 28 00 	add r5,r2,r1
    14c0:	e3 ff ff e0 	bi 1440 <float32_mul+0x174>
    14c4:	78 07 00 01 	mvhi r7,0x1
    14c8:	38 e7 00 00 	ori r7,r7,0x0
    14cc:	e3 ff ff ca 	bi 13f4 <float32_mul+0x128>
    bExp = extractFloat32Exp( b );
    bSign = extractFloat32Sign( b );
    zSign = aSign ^ bSign;
    if ( aExp == 0xFF ) {
        if ( aSig || ( ( bExp == 0xFF ) && bSig ) ) {
            return propagateFloat32NaN( a, b );
    14d0:	b8 e0 08 00 	mv r1,r7
    14d4:	b9 00 10 00 	mv r2,r8
    14d8:	fb ff fc db 	calli 844 <propagateFloat32NaN>
    14dc:	b8 20 28 00 	mv r5,r1
        zSig0 <<= 1;
        --zExp;
    }
    return roundAndPackFloat32( zSign, zExp, zSig0 );

}
    14e0:	b8 a0 08 00 	mv r1,r5
    14e4:	2b 9d 00 04 	lw ra,(sp+4)
    14e8:	2b 8b 00 0c 	lw r11,(sp+12)
    14ec:	2b 8c 00 08 	lw r12,(sp+8)
    14f0:	37 9c 00 0c 	addi sp,sp,12
    14f4:	c3 a0 00 00 	ret
            return float32_default_nan;
        }
        return packFloat32( zSign, 0xFF, 0 );
    }
    if ( bExp == 0xFF ) {
        if ( bSig ) return propagateFloat32NaN( a, b );
    14f8:	fb ff fc d3 	calli 844 <propagateFloat32NaN>
    14fc:	b8 20 28 00 	mv r5,r1
    1500:	e3 ff ff d0 	bi 1440 <float32_mul+0x174>
    shiftCount = 0;
    if ( a < 0x10000 ) {
        shiftCount += 16;
        a <<= 16;
    }
    if ( a < 0x1000000 ) {
    1504:	78 01 00 ff 	mvhi r1,0xff
    int8 shiftCount;
      
    shiftCount = 0;
    if ( a < 0x10000 ) {
        shiftCount += 16;
        a <<= 16;
    1508:	3f a3 00 10 	sli r3,ra,16
    }
    if ( a < 0x1000000 ) {
    150c:	38 21 ff ff 	ori r1,r1,0xffff
    1510:	50 23 00 09 	bgeu r1,r3,1534 <float32_mul+0x268>
    1514:	34 05 00 08 	mvi r5,8
    1518:	e3 ff ff 89 	bi 133c <float32_mul+0x70>
    151c:	78 01 00 ff 	mvhi r1,0xff
    int8 shiftCount;
      
    shiftCount = 0;
    if ( a < 0x10000 ) {
        shiftCount += 16;
        a <<= 16;
    1520:	3d 63 00 10 	sli r3,r11,16
    }
    if ( a < 0x1000000 ) {
    1524:	38 21 ff ff 	ori r1,r1,0xffff
    1528:	50 23 00 05 	bgeu r1,r3,153c <float32_mul+0x270>
    152c:	34 04 00 08 	mvi r4,8
    1530:	e3 ff ff 96 	bi 1388 <float32_mul+0xbc>
    1534:	34 02 00 18 	mvi r2,24
    1538:	e3 ff ff 7f 	bi 1334 <float32_mul+0x68>
    153c:	34 02 00 18 	mvi r2,24
    1540:	e3 ff ff 90 	bi 1380 <float32_mul+0xb4>

00001544 <float32_div>:
by the corresponding value `b'.  The operation is performed according to
the IEC/IEEE Standard for Binary Floating-point Arithmetic.
-------------------------------------------------------------------------------
*/
float32 float32_div( float32 a, float32 b )
{
    1544:	37 9c ff ec 	addi sp,sp,-20
    1548:	5b 8b 00 14 	sw (sp+20),r11
    154c:	5b 8c 00 10 	sw (sp+16),r12
    1550:	5b 8d 00 0c 	sw (sp+12),r13
    1554:	5b 8e 00 08 	sw (sp+8),r14
    1558:	5b 9d 00 04 	sw (sp+4),ra
-------------------------------------------------------------------------------
*/
INLINE int16 extractFloat32Exp( float32 a )
{

    return ( a>>23 ) & 0xFF;
    155c:	00 26 00 17 	srui r6,r1,23
-------------------------------------------------------------------------------
*/
INLINE bits32 extractFloat32Frac( float32 a )
{

    return a & 0x007FFFFF;
    1560:	78 03 00 7f 	mvhi r3,0x7f
-------------------------------------------------------------------------------
*/
INLINE int16 extractFloat32Exp( float32 a )
{

    return ( a>>23 ) & 0xFF;
    1564:	00 47 00 17 	srui r7,r2,23
-------------------------------------------------------------------------------
*/
INLINE bits32 extractFloat32Frac( float32 a )
{

    return a & 0x007FFFFF;
    1568:	38 63 ff ff 	ori r3,r3,0xffff
    aExp = extractFloat32Exp( a );
    aSign = extractFloat32Sign( a );
    bSig = extractFloat32Frac( b );
    bExp = extractFloat32Exp( b );
    bSign = extractFloat32Sign( b );
    zSign = aSign ^ bSign;
    156c:	98 22 40 00 	xor r8,r1,r2
    if ( aExp == 0xFF ) {
    1570:	34 09 00 ff 	mvi r9,255
-------------------------------------------------------------------------------
*/
INLINE int16 extractFloat32Exp( float32 a )
{

    return ( a>>23 ) & 0xFF;
    1574:	20 c6 00 ff 	andi r6,r6,0xff
-------------------------------------------------------------------------------
*/
INLINE bits32 extractFloat32Frac( float32 a )
{

    return a & 0x007FFFFF;
    1578:	a0 43 50 00 	and r10,r2,r3
-------------------------------------------------------------------------------
*/
INLINE int16 extractFloat32Exp( float32 a )
{

    return ( a>>23 ) & 0xFF;
    157c:	a0 e9 38 00 	and r7,r7,r9
    aExp = extractFloat32Exp( a );
    aSign = extractFloat32Sign( a );
    bSig = extractFloat32Frac( b );
    bExp = extractFloat32Exp( b );
    bSign = extractFloat32Sign( b );
    zSign = aSign ^ bSign;
    1580:	01 0e 00 1f 	srui r14,r8,31
-------------------------------------------------------------------------------
*/
INLINE bits32 extractFloat32Frac( float32 a )
{

    return a & 0x007FFFFF;
    1584:	a0 23 28 00 	and r5,r1,r3
    aSign = extractFloat32Sign( a );
    bSig = extractFloat32Frac( b );
    bExp = extractFloat32Exp( b );
    bSign = extractFloat32Sign( b );
    zSign = aSign ^ bSign;
    if ( aExp == 0xFF ) {
    1588:	44 c9 00 73 	be r6,r9,1754 <float32_div+0x210>
            float_raise( float_flag_invalid );
            return float32_default_nan;
        }
        return packFloat32( zSign, 0xFF, 0 );
    }
    if ( bExp == 0xFF ) {
    158c:	44 e9 00 58 	be r7,r9,16ec <float32_div+0x1a8>
        if ( bSig ) return propagateFloat32NaN( a, b );
        return packFloat32( zSign, 0, 0 );
    }
    if ( bExp == 0 ) {
    1590:	5c e0 00 12 	bne r7,r0,15d8 <float32_div+0x94>
        if ( bSig == 0 ) {
    1594:	45 47 00 7e 	be r10,r7,178c <float32_div+0x248>
        0, 0, 0, 0, 0, 0, 0, 0, 0, 0, 0, 0, 0, 0, 0, 0
    };
    int8 shiftCount;
      
    shiftCount = 0;
    if ( a < 0x10000 ) {
    1598:	38 01 ff ff 	mvu r1,0xffff
    159c:	50 2a 00 9a 	bgeu r1,r10,1804 <float32_div+0x2c0>
    15a0:	b9 40 18 00 	mv r3,r10
    15a4:	34 02 00 08 	mvi r2,8
        shiftCount += 16;
        a <<= 16;
    }
    if ( a < 0x1000000 ) {
        shiftCount += 8;
        a <<= 8;
    15a8:	3c 63 00 08 	sli r3,r3,8
    15ac:	34 44 ff f8 	addi r4,r2,-8
static void
 normalizeFloat32Subnormal( bits32 aSig, int16 *zExpPtr, bits32 *zSigPtr )
{
    int8 shiftCount;

    shiftCount = countLeadingZeros32( aSig ) - 8;
    15b0:	00 63 00 18 	srui r3,r3,24
    15b4:	78 01 00 00 	mvhi r1,0x0
    15b8:	3c 63 00 02 	sli r3,r3,2
    15bc:	38 21 24 90 	ori r1,r1,0x2490
    15c0:	b4 23 08 00 	add r1,r1,r3
    15c4:	28 22 00 00 	lw r2,(r1+0)
    *zSigPtr = aSig<<shiftCount;
    *zExpPtr = 1 - shiftCount;
    15c8:	34 01 00 01 	mvi r1,1
static void
 normalizeFloat32Subnormal( bits32 aSig, int16 *zExpPtr, bits32 *zSigPtr )
{
    int8 shiftCount;

    shiftCount = countLeadingZeros32( aSig ) - 8;
    15cc:	b4 82 10 00 	add r2,r4,r2
    *zSigPtr = aSig<<shiftCount;
    15d0:	bd 42 50 00 	sl r10,r10,r2
    *zExpPtr = 1 - shiftCount;
    15d4:	c8 22 38 00 	sub r7,r1,r2
            float_raise( float_flag_divbyzero );
            return packFloat32( zSign, 0xFF, 0 );
        }
        normalizeFloat32Subnormal( bSig, &bExp, &bSig );
    }
    if ( aExp == 0 ) {
    15d8:	5c c0 00 13 	bne r6,r0,1624 <float32_div+0xe0>
significand.
-------------------------------------------------------------------------------
*/
INLINE float32 packFloat32( flag zSign, int16 zExp, bits32 zSig )
{
    return ( ( (bits32) zSign )<<31 ) + ( ( (bits32) zExp )<<23 ) + zSig;
    15dc:	3d c4 00 1f 	sli r4,r14,31
            return packFloat32( zSign, 0xFF, 0 );
        }
        normalizeFloat32Subnormal( bSig, &bExp, &bSig );
    }
    if ( aExp == 0 ) {
        if ( aSig == 0 ) return packFloat32( zSign, 0, 0 );
    15e0:	44 a6 00 45 	be r5,r6,16f4 <float32_div+0x1b0>
        0, 0, 0, 0, 0, 0, 0, 0, 0, 0, 0, 0, 0, 0, 0, 0
    };
    int8 shiftCount;
      
    shiftCount = 0;
    if ( a < 0x10000 ) {
    15e4:	38 01 ff ff 	mvu r1,0xffff
    15e8:	50 25 00 8d 	bgeu r1,r5,181c <float32_div+0x2d8>
    15ec:	b8 a0 18 00 	mv r3,r5
    15f0:	34 02 00 08 	mvi r2,8
        shiftCount += 16;
        a <<= 16;
    }
    if ( a < 0x1000000 ) {
        shiftCount += 8;
        a <<= 8;
    15f4:	3c 63 00 08 	sli r3,r3,8
    15f8:	34 44 ff f8 	addi r4,r2,-8
static void
 normalizeFloat32Subnormal( bits32 aSig, int16 *zExpPtr, bits32 *zSigPtr )
{
    int8 shiftCount;

    shiftCount = countLeadingZeros32( aSig ) - 8;
    15fc:	00 63 00 18 	srui r3,r3,24
    1600:	78 01 00 00 	mvhi r1,0x0
    1604:	3c 63 00 02 	sli r3,r3,2
    1608:	38 21 24 90 	ori r1,r1,0x2490
    160c:	b4 23 08 00 	add r1,r1,r3
    1610:	28 22 00 00 	lw r2,(r1+0)
    *zSigPtr = aSig<<shiftCount;
    *zExpPtr = 1 - shiftCount;
    1614:	34 01 00 01 	mvi r1,1
static void
 normalizeFloat32Subnormal( bits32 aSig, int16 *zExpPtr, bits32 *zSigPtr )
{
    int8 shiftCount;

    shiftCount = countLeadingZeros32( aSig ) - 8;
    1618:	b4 82 10 00 	add r2,r4,r2
    *zSigPtr = aSig<<shiftCount;
    161c:	bc a2 28 00 	sl r5,r5,r2
    *zExpPtr = 1 - shiftCount;
    1620:	c8 22 30 00 	sub r6,r1,r2
    if ( aExp == 0 ) {
        if ( aSig == 0 ) return packFloat32( zSign, 0, 0 );
        normalizeFloat32Subnormal( aSig, &aExp, &aSig );
    }
    zExp = aExp - bExp + 0x7D;
    aSig = ( aSig | 0x00800000 )<<7;
    1624:	78 01 00 80 	mvhi r1,0x80
    1628:	38 21 00 00 	ori r1,r1,0x0
    162c:	b8 a1 10 00 	or r2,r5,r1
    1630:	3c 4c 00 07 	sli r12,r2,7
    bSig = ( bSig | 0x00800000 )<<8;
    1634:	b9 41 08 00 	or r1,r10,r1
    1638:	3c 2b 00 08 	sli r11,r1,8
    }
    if ( aExp == 0 ) {
        if ( aSig == 0 ) return packFloat32( zSign, 0, 0 );
        normalizeFloat32Subnormal( aSig, &aExp, &aSig );
    }
    zExp = aExp - bExp + 0x7D;
    163c:	c8 c7 10 00 	sub r2,r6,r7
    aSig = ( aSig | 0x00800000 )<<7;
    bSig = ( bSig | 0x00800000 )<<8;
    if ( bSig <= ( aSig + aSig ) ) {
    1640:	b5 8c 08 00 	add r1,r12,r12
    }
    if ( aExp == 0 ) {
        if ( aSig == 0 ) return packFloat32( zSign, 0, 0 );
        normalizeFloat32Subnormal( aSig, &aExp, &aSig );
    }
    zExp = aExp - bExp + 0x7D;
    1644:	34 4d 00 7d 	addi r13,r2,125
    aSig = ( aSig | 0x00800000 )<<7;
    bSig = ( bSig | 0x00800000 )<<8;
    if ( bSig <= ( aSig + aSig ) ) {
    1648:	55 61 00 03 	bgu r11,r1,1654 <float32_div+0x110>
        aSig >>= 1;
    164c:	01 8c 00 01 	srui r12,r12,1
        ++zExp;
    1650:	35 ad 00 01 	addi r13,r13,1
    }
    zSig = estimateDiv64To32( aSig, 0, bSig );
    1654:	34 02 00 00 	mvi r2,0
    1658:	b9 80 08 00 	mv r1,r12
    165c:	b9 60 18 00 	mv r3,r11
    1660:	fb ff fc 0c 	calli 690 <estimateDiv64To32>
    1664:	b8 20 38 00 	mv r7,r1
    if ( ( zSig & 0x3F ) <= 2 ) {
    1668:	20 22 00 3f 	andi r2,r1,0x3f
    166c:	34 01 00 02 	mvi r1,2
    1670:	54 41 00 2c 	bgu r2,r1,1720 <float32_div+0x1dc>
    aLow = a;
    aHigh = a>>16;
    bLow = b;
    bHigh = b>>16;
    z1 = ( (bits32) aLow ) * bLow;
    zMiddleA = ( (bits32) aLow ) * bHigh;
    1674:	00 e9 00 10 	srui r9,r7,16
    zMiddleB = ( (bits32) aHigh ) * bLow;
    1678:	01 68 00 10 	srui r8,r11,16

    aLow = a;
    aHigh = a>>16;
    bLow = b;
    bHigh = b>>16;
    z1 = ( (bits32) aLow ) * bLow;
    167c:	21 64 ff ff 	andi r4,r11,0xffff
    1680:	20 e3 ff ff 	andi r3,r7,0xffff
    zMiddleA = ( (bits32) aLow ) * bHigh;
    1684:	89 24 10 00 	mul r2,r9,r4
    zMiddleB = ( (bits32) aHigh ) * bLow;
    1688:	88 68 08 00 	mul r1,r3,r8
    z0 = ( (bits32) aHigh ) * bHigh;
    zMiddleA += zMiddleB;
    168c:	b4 41 28 00 	add r5,r2,r1
    z0 += ( ( (bits32) ( zMiddleA < zMiddleB ) )<<16 ) + ( zMiddleA>>16 );
    1690:	54 25 00 5a 	bgu r1,r5,17f8 <float32_div+0x2b4>
    1694:	34 06 00 00 	mvi r6,0

    aLow = a;
    aHigh = a>>16;
    bLow = b;
    bHigh = b>>16;
    z1 = ( (bits32) aLow ) * bLow;
    1698:	88 64 18 00 	mul r3,r3,r4
    zMiddleA = ( (bits32) aLow ) * bHigh;
    zMiddleB = ( (bits32) aHigh ) * bLow;
    z0 = ( (bits32) aHigh ) * bHigh;
    zMiddleA += zMiddleB;
    z0 += ( ( (bits32) ( zMiddleA < zMiddleB ) )<<16 ) + ( zMiddleA>>16 );
    zMiddleA <<= 16;
    169c:	3c a2 00 10 	sli r2,r5,16
    z1 = ( (bits32) aLow ) * bLow;
    zMiddleA = ( (bits32) aLow ) * bHigh;
    zMiddleB = ( (bits32) aHigh ) * bLow;
    z0 = ( (bits32) aHigh ) * bHigh;
    zMiddleA += zMiddleB;
    z0 += ( ( (bits32) ( zMiddleA < zMiddleB ) )<<16 ) + ( zMiddleA>>16 );
    16a0:	89 28 08 00 	mul r1,r9,r8
    zMiddleA <<= 16;
    z1 += zMiddleA;
    16a4:	b4 43 18 00 	add r3,r2,r3
    z1 = ( (bits32) aLow ) * bLow;
    zMiddleA = ( (bits32) aLow ) * bHigh;
    zMiddleB = ( (bits32) aHigh ) * bLow;
    z0 = ( (bits32) aHigh ) * bHigh;
    zMiddleA += zMiddleB;
    z0 += ( ( (bits32) ( zMiddleA < zMiddleB ) )<<16 ) + ( zMiddleA>>16 );
    16a8:	00 a5 00 10 	srui r5,r5,16
 sub64(
     bits32 a0, bits32 a1, bits32 b0, bits32 b1, bits32 *z0Ptr, bits32 *z1Ptr )
{

    *z1Ptr = a1 - b1;
    *z0Ptr = a0 - b0 - ( a1 < b1 );
    16ac:	7c 64 00 00 	cmpnei r4,r3,0
    z1 = ( (bits32) aLow ) * bLow;
    zMiddleA = ( (bits32) aLow ) * bHigh;
    zMiddleB = ( (bits32) aHigh ) * bLow;
    z0 = ( (bits32) aHigh ) * bHigh;
    zMiddleA += zMiddleB;
    z0 += ( ( (bits32) ( zMiddleA < zMiddleB ) )<<16 ) + ( zMiddleA>>16 );
    16b0:	c9 81 08 00 	sub r1,r12,r1
 sub64(
     bits32 a0, bits32 a1, bits32 b0, bits32 b1, bits32 *z0Ptr, bits32 *z1Ptr )
{

    *z1Ptr = a1 - b1;
    *z0Ptr = a0 - b0 - ( a1 < b1 );
    16b4:	f4 43 10 00 	cmpgu r2,r2,r3
    z1 = ( (bits32) aLow ) * bLow;
    zMiddleA = ( (bits32) aLow ) * bHigh;
    zMiddleB = ( (bits32) aHigh ) * bLow;
    z0 = ( (bits32) aHigh ) * bHigh;
    zMiddleA += zMiddleB;
    z0 += ( ( (bits32) ( zMiddleA < zMiddleB ) )<<16 ) + ( zMiddleA>>16 );
    16b8:	c8 25 08 00 	sub r1,r1,r5
 sub64(
     bits32 a0, bits32 a1, bits32 b0, bits32 b1, bits32 *z0Ptr, bits32 *z1Ptr )
{

    *z1Ptr = a1 - b1;
    *z0Ptr = a0 - b0 - ( a1 < b1 );
    16bc:	c8 24 08 00 	sub r1,r1,r4
    16c0:	c8 22 08 00 	sub r1,r1,r2
    16c4:	c8 26 10 00 	sub r2,r1,r6
INLINE void
 sub64(
     bits32 a0, bits32 a1, bits32 b0, bits32 b1, bits32 *z0Ptr, bits32 *z1Ptr )
{

    *z1Ptr = a1 - b1;
    16c8:	c8 03 18 00 	sub r3,r0,r3
        mul32To64( bSig, zSig, &term0, &term1 );
        sub64( aSig, 0, term0, term1, &rem0, &rem1 );
        while ( (sbits32) rem0 < 0 ) {
    16cc:	4c 40 00 13 	bge r2,r0,1718 <float32_div+0x1d4>
 add64(
     bits32 a0, bits32 a1, bits32 b0, bits32 b1, bits32 *z0Ptr, bits32 *z1Ptr )
{
    bits32 z1;

    z1 = a1 + b1;
    16d0:	b4 6b 20 00 	add r4,r3,r11
    *z1Ptr = z1;
    *z0Ptr = a0 + b0 + ( z1 < a1 );
    16d4:	f4 64 08 00 	cmpgu r1,r3,r4
            --zSig;
    16d8:	34 e7 ff ff 	addi r7,r7,-1
    16dc:	b4 41 10 00 	add r2,r2,r1
    }
    zSig = estimateDiv64To32( aSig, 0, bSig );
    if ( ( zSig & 0x3F ) <= 2 ) {
        mul32To64( bSig, zSig, &term0, &term1 );
        sub64( aSig, 0, term0, term1, &rem0, &rem1 );
        while ( (sbits32) rem0 < 0 ) {
    16e0:	b8 80 18 00 	mv r3,r4
    16e4:	4c 40 00 0c 	bge r2,r0,1714 <float32_div+0x1d0>
    16e8:	e3 ff ff fa 	bi 16d0 <float32_div+0x18c>
significand.
-------------------------------------------------------------------------------
*/
INLINE float32 packFloat32( flag zSign, int16 zExp, bits32 zSig )
{
    return ( ( (bits32) zSign )<<31 ) + ( ( (bits32) zExp )<<23 ) + zSig;
    16ec:	3d c4 00 1f 	sli r4,r14,31
            return float32_default_nan;
        }
        return packFloat32( zSign, 0xFF, 0 );
    }
    if ( bExp == 0xFF ) {
        if ( bSig ) return propagateFloat32NaN( a, b );
    16f0:	5d 40 00 38 	bne r10,r0,17d0 <float32_div+0x28c>
        }
        zSig |= ( rem1 != 0 );
    }
    return roundAndPackFloat32( zSign, zExp, zSig );

}
    16f4:	b8 80 08 00 	mv r1,r4
    16f8:	2b 9d 00 04 	lw ra,(sp+4)
    16fc:	2b 8b 00 14 	lw r11,(sp+20)
    1700:	2b 8c 00 10 	lw r12,(sp+16)
    1704:	2b 8d 00 0c 	lw r13,(sp+12)
    1708:	2b 8e 00 08 	lw r14,(sp+8)
    170c:	37 9c 00 14 	addi sp,sp,20
    1710:	c3 a0 00 00 	ret
    }
    zSig = estimateDiv64To32( aSig, 0, bSig );
    if ( ( zSig & 0x3F ) <= 2 ) {
        mul32To64( bSig, zSig, &term0, &term1 );
        sub64( aSig, 0, term0, term1, &rem0, &rem1 );
        while ( (sbits32) rem0 < 0 ) {
    1714:	b8 80 18 00 	mv r3,r4
            --zSig;
            add64( rem0, rem1, 0, bSig, &rem0, &rem1 );
        }
        zSig |= ( rem1 != 0 );
    1718:	7c 61 00 00 	cmpnei r1,r3,0
    171c:	b8 e1 38 00 	or r7,r7,r1
    }
    return roundAndPackFloat32( zSign, zExp, zSig );
    1720:	b9 c0 08 00 	mv r1,r14
    1724:	b9 a0 10 00 	mv r2,r13
    1728:	b8 e0 18 00 	mv r3,r7
    172c:	fb ff fc 75 	calli 900 <roundAndPackFloat32>
    1730:	b8 20 20 00 	mv r4,r1

}
    1734:	b8 80 08 00 	mv r1,r4
    1738:	2b 9d 00 04 	lw ra,(sp+4)
    173c:	2b 8b 00 14 	lw r11,(sp+20)
    1740:	2b 8c 00 10 	lw r12,(sp+16)
    1744:	2b 8d 00 0c 	lw r13,(sp+12)
    1748:	2b 8e 00 08 	lw r14,(sp+8)
    174c:	37 9c 00 14 	addi sp,sp,20
    1750:	c3 a0 00 00 	ret
    bSig = extractFloat32Frac( b );
    bExp = extractFloat32Exp( b );
    bSign = extractFloat32Sign( b );
    zSign = aSign ^ bSign;
    if ( aExp == 0xFF ) {
        if ( aSig ) return propagateFloat32NaN( a, b );
    1754:	5c a0 00 1f 	bne r5,r0,17d0 <float32_div+0x28c>
        if ( bExp == 0xFF ) {
    1758:	44 e6 00 1d 	be r7,r6,17cc <float32_div+0x288>
significand.
-------------------------------------------------------------------------------
*/
INLINE float32 packFloat32( flag zSign, int16 zExp, bits32 zSig )
{
    return ( ( (bits32) zSign )<<31 ) + ( ( (bits32) zExp )<<23 ) + zSig;
    175c:	3d c2 00 1f 	sli r2,r14,31
    1760:	78 01 7f 80 	mvhi r1,0x7f80
    1764:	38 21 00 00 	ori r1,r1,0x0
    1768:	b4 41 20 00 	add r4,r2,r1
        }
        zSig |= ( rem1 != 0 );
    }
    return roundAndPackFloat32( zSign, zExp, zSig );

}
    176c:	b8 80 08 00 	mv r1,r4
    1770:	2b 9d 00 04 	lw ra,(sp+4)
    1774:	2b 8b 00 14 	lw r11,(sp+20)
    1778:	2b 8c 00 10 	lw r12,(sp+16)
    177c:	2b 8d 00 0c 	lw r13,(sp+12)
    1780:	2b 8e 00 08 	lw r14,(sp+8)
    1784:	37 9c 00 14 	addi sp,sp,20
    1788:	c3 a0 00 00 	ret
        if ( bSig ) return propagateFloat32NaN( a, b );
        return packFloat32( zSign, 0, 0 );
    }
    if ( bExp == 0 ) {
        if ( bSig == 0 ) {
            if ( ( aExp | aSig ) == 0 ) {
    178c:	b8 c5 08 00 	or r1,r6,r5
    1790:	5c 2a 00 29 	bne r1,r10,1834 <float32_div+0x2f0>
    1794:	78 02 00 00 	mvhi r2,0x0
    1798:	38 42 28 ec 	ori r2,r2,0x28ec
    179c:	28 41 00 00 	lw r1,(r2+0)
    17a0:	34 04 ff ff 	mvi r4,-1
    17a4:	38 21 00 10 	ori r1,r1,0x10
    17a8:	58 41 00 00 	sw (r2+0),r1
        }
        zSig |= ( rem1 != 0 );
    }
    return roundAndPackFloat32( zSign, zExp, zSig );

}
    17ac:	b8 80 08 00 	mv r1,r4
    17b0:	2b 9d 00 04 	lw ra,(sp+4)
    17b4:	2b 8b 00 14 	lw r11,(sp+20)
    17b8:	2b 8c 00 10 	lw r12,(sp+16)
    17bc:	2b 8d 00 0c 	lw r13,(sp+12)
    17c0:	2b 8e 00 08 	lw r14,(sp+8)
    17c4:	37 9c 00 14 	addi sp,sp,20
    17c8:	c3 a0 00 00 	ret
    bSign = extractFloat32Sign( b );
    zSign = aSign ^ bSign;
    if ( aExp == 0xFF ) {
        if ( aSig ) return propagateFloat32NaN( a, b );
        if ( bExp == 0xFF ) {
            if ( bSig ) return propagateFloat32NaN( a, b );
    17cc:	45 40 ff f2 	be r10,r0,1794 <float32_div+0x250>
            return float32_default_nan;
        }
        return packFloat32( zSign, 0xFF, 0 );
    }
    if ( bExp == 0xFF ) {
        if ( bSig ) return propagateFloat32NaN( a, b );
    17d0:	fb ff fc 1d 	calli 844 <propagateFloat32NaN>
    17d4:	b8 20 20 00 	mv r4,r1
        }
        zSig |= ( rem1 != 0 );
    }
    return roundAndPackFloat32( zSign, zExp, zSig );

}
    17d8:	b8 80 08 00 	mv r1,r4
    17dc:	2b 9d 00 04 	lw ra,(sp+4)
    17e0:	2b 8b 00 14 	lw r11,(sp+20)
    17e4:	2b 8c 00 10 	lw r12,(sp+16)
    17e8:	2b 8d 00 0c 	lw r13,(sp+12)
    17ec:	2b 8e 00 08 	lw r14,(sp+8)
    17f0:	37 9c 00 14 	addi sp,sp,20
    17f4:	c3 a0 00 00 	ret
    z1 = ( (bits32) aLow ) * bLow;
    zMiddleA = ( (bits32) aLow ) * bHigh;
    zMiddleB = ( (bits32) aHigh ) * bLow;
    z0 = ( (bits32) aHigh ) * bHigh;
    zMiddleA += zMiddleB;
    z0 += ( ( (bits32) ( zMiddleA < zMiddleB ) )<<16 ) + ( zMiddleA>>16 );
    17f8:	78 06 00 01 	mvhi r6,0x1
    17fc:	38 c6 00 00 	ori r6,r6,0x0
    1800:	e3 ff ff a6 	bi 1698 <float32_div+0x154>
    shiftCount = 0;
    if ( a < 0x10000 ) {
        shiftCount += 16;
        a <<= 16;
    }
    if ( a < 0x1000000 ) {
    1804:	78 01 00 ff 	mvhi r1,0xff
    int8 shiftCount;
      
    shiftCount = 0;
    if ( a < 0x10000 ) {
        shiftCount += 16;
        a <<= 16;
    1808:	3d 43 00 10 	sli r3,r10,16
    }
    if ( a < 0x1000000 ) {
    180c:	38 21 ff ff 	ori r1,r1,0xffff
    1810:	50 23 00 13 	bgeu r1,r3,185c <float32_div+0x318>
    1814:	34 04 00 08 	mvi r4,8
    1818:	e3 ff ff 66 	bi 15b0 <float32_div+0x6c>
    181c:	78 01 00 ff 	mvhi r1,0xff
    int8 shiftCount;
      
    shiftCount = 0;
    if ( a < 0x10000 ) {
        shiftCount += 16;
        a <<= 16;
    1820:	3c a3 00 10 	sli r3,r5,16
    }
    if ( a < 0x1000000 ) {
    1824:	38 21 ff ff 	ori r1,r1,0xffff
    1828:	50 23 00 0f 	bgeu r1,r3,1864 <float32_div+0x320>
    182c:	34 04 00 08 	mvi r4,8
    1830:	e3 ff ff 73 	bi 15fc <float32_div+0xb8>
    }
    if ( bExp == 0 ) {
        if ( bSig == 0 ) {
            if ( ( aExp | aSig ) == 0 ) {
                float_raise( float_flag_invalid );
                return float32_default_nan;
    1834:	78 03 00 00 	mvhi r3,0x0
    1838:	38 63 28 ec 	ori r3,r3,0x28ec
    183c:	28 62 00 00 	lw r2,(r3+0)
significand.
-------------------------------------------------------------------------------
*/
INLINE float32 packFloat32( flag zSign, int16 zExp, bits32 zSig )
{
    return ( ( (bits32) zSign )<<31 ) + ( ( (bits32) zExp )<<23 ) + zSig;
    1840:	3d c4 00 1f 	sli r4,r14,31
    1844:	78 01 7f 80 	mvhi r1,0x7f80
    }
    if ( bExp == 0 ) {
        if ( bSig == 0 ) {
            if ( ( aExp | aSig ) == 0 ) {
                float_raise( float_flag_invalid );
                return float32_default_nan;
    1848:	38 42 00 02 	ori r2,r2,0x2
significand.
-------------------------------------------------------------------------------
*/
INLINE float32 packFloat32( flag zSign, int16 zExp, bits32 zSig )
{
    return ( ( (bits32) zSign )<<31 ) + ( ( (bits32) zExp )<<23 ) + zSig;
    184c:	38 21 00 00 	ori r1,r1,0x0
    }
    if ( bExp == 0 ) {
        if ( bSig == 0 ) {
            if ( ( aExp | aSig ) == 0 ) {
                float_raise( float_flag_invalid );
                return float32_default_nan;
    1850:	58 62 00 00 	sw (r3+0),r2
significand.
-------------------------------------------------------------------------------
*/
INLINE float32 packFloat32( flag zSign, int16 zExp, bits32 zSig )
{
    return ( ( (bits32) zSign )<<31 ) + ( ( (bits32) zExp )<<23 ) + zSig;
    1854:	b4 81 20 00 	add r4,r4,r1
    1858:	e3 ff ff a7 	bi 16f4 <float32_div+0x1b0>
    185c:	34 02 00 18 	mvi r2,24
    1860:	e3 ff ff 52 	bi 15a8 <float32_div+0x64>
    1864:	34 02 00 18 	mvi r2,24
    1868:	e3 ff ff 63 	bi 15f4 <float32_div+0xb0>

0000186c <float32_rem>:
with respect to the corresponding value `b'.  The operation is performed
according to the IEC/IEEE Standard for Binary Floating-point Arithmetic.
-------------------------------------------------------------------------------
*/
float32 float32_rem( float32 a, float32 b )
{
    186c:	37 9c ff d8 	addi sp,sp,-40
    1870:	5b 8b 00 28 	sw (sp+40),r11
    1874:	5b 8c 00 24 	sw (sp+36),r12
    1878:	5b 8d 00 20 	sw (sp+32),r13
    187c:	5b 8e 00 1c 	sw (sp+28),r14
    1880:	5b 8f 00 18 	sw (sp+24),r15
    1884:	5b 90 00 14 	sw (sp+20),r16
    1888:	5b 91 00 10 	sw (sp+16),r17
    188c:	5b 92 00 0c 	sw (sp+12),r18
    1890:	5b 93 00 08 	sw (sp+8),r19
    1894:	5b 9d 00 04 	sw (sp+4),ra
-------------------------------------------------------------------------------
*/
INLINE int16 extractFloat32Exp( float32 a )
{

    return ( a>>23 ) & 0xFF;
    1898:	00 23 00 17 	srui r3,r1,23
-------------------------------------------------------------------------------
*/
INLINE bits32 extractFloat32Frac( float32 a )
{

    return a & 0x007FFFFF;
    189c:	78 04 00 7f 	mvhi r4,0x7f
-------------------------------------------------------------------------------
*/
INLINE int16 extractFloat32Exp( float32 a )
{

    return ( a>>23 ) & 0xFF;
    18a0:	00 45 00 17 	srui r5,r2,23
-------------------------------------------------------------------------------
*/
INLINE bits32 extractFloat32Frac( float32 a )
{

    return a & 0x007FFFFF;
    18a4:	38 84 ff ff 	ori r4,r4,0xffff
-------------------------------------------------------------------------------
*/
INLINE int16 extractFloat32Exp( float32 a )
{

    return ( a>>23 ) & 0xFF;
    18a8:	20 67 00 ff 	andi r7,r3,0xff
    aExp = extractFloat32Exp( a );
    aSign = extractFloat32Sign( a );
    bSig = extractFloat32Frac( b );
    bExp = extractFloat32Exp( b );
    bSign = extractFloat32Sign( b );
    if ( aExp == 0xFF ) {
    18ac:	34 03 00 ff 	mvi r3,255
-------------------------------------------------------------------------------
*/
INLINE bits32 extractFloat32Frac( float32 a )
{

    return a & 0x007FFFFF;
    18b0:	a0 44 40 00 	and r8,r2,r4
with respect to the corresponding value `b'.  The operation is performed
according to the IEC/IEEE Standard for Binary Floating-point Arithmetic.
-------------------------------------------------------------------------------
*/
float32 float32_rem( float32 a, float32 b )
{
    18b4:	b8 20 80 00 	mv r16,r1
    18b8:	b8 40 30 00 	mv r6,r2
-------------------------------------------------------------------------------
*/
INLINE int16 extractFloat32Exp( float32 a )
{

    return ( a>>23 ) & 0xFF;
    18bc:	a0 a3 88 00 	and r17,r5,r3
-------------------------------------------------------------------------------
*/
INLINE bits32 extractFloat32Frac( float32 a )
{

    return a & 0x007FFFFF;
    18c0:	a0 24 20 00 	and r4,r1,r4
    aExp = extractFloat32Exp( a );
    aSign = extractFloat32Sign( a );
    bSig = extractFloat32Frac( b );
    bExp = extractFloat32Exp( b );
    bSign = extractFloat32Sign( b );
    if ( aExp == 0xFF ) {
    18c4:	44 e3 00 82 	be r7,r3,1acc <float32_rem+0x260>
            return propagateFloat32NaN( a, b );
        }
        float_raise( float_flag_invalid );
        return float32_default_nan;
    }
    if ( bExp == 0xFF ) {
    18c8:	46 23 00 16 	be r17,r3,1920 <float32_rem+0xb4>
        if ( bSig ) return propagateFloat32NaN( a, b );
        return a;
    }
    if ( bExp == 0 ) {
    18cc:	5e 20 00 29 	bne r17,r0,1970 <float32_rem+0x104>
        if ( bSig == 0 ) {
    18d0:	5d 11 00 18 	bne r8,r17,1930 <float32_rem+0xc4>
    18d4:	78 02 00 00 	mvhi r2,0x0
    18d8:	38 42 28 ec 	ori r2,r2,0x28ec
    18dc:	28 41 00 00 	lw r1,(r2+0)
    18e0:	34 10 ff ff 	mvi r16,-1
    18e4:	38 21 00 10 	ori r1,r1,0x10
    18e8:	58 41 00 00 	sw (r2+0),r1
    }
    zSign = ( (sbits32) aSig < 0 );
    if ( zSign ) aSig = - aSig;
    return normalizeRoundAndPackFloat32( aSign ^ zSign, bExp, aSig );

}
    18ec:	ba 00 08 00 	mv r1,r16
    18f0:	2b 9d 00 04 	lw ra,(sp+4)
    18f4:	2b 8b 00 28 	lw r11,(sp+40)
    18f8:	2b 8c 00 24 	lw r12,(sp+36)
    18fc:	2b 8d 00 20 	lw r13,(sp+32)
    1900:	2b 8e 00 1c 	lw r14,(sp+28)
    1904:	2b 8f 00 18 	lw r15,(sp+24)
    1908:	2b 90 00 14 	lw r16,(sp+20)
    190c:	2b 91 00 10 	lw r17,(sp+16)
    1910:	2b 92 00 0c 	lw r18,(sp+12)
    1914:	2b 93 00 08 	lw r19,(sp+8)
    1918:	37 9c 00 28 	addi sp,sp,40
    191c:	c3 a0 00 00 	ret
        }
        float_raise( float_flag_invalid );
        return float32_default_nan;
    }
    if ( bExp == 0xFF ) {
        if ( bSig ) return propagateFloat32NaN( a, b );
    1920:	45 00 ff f3 	be r8,r0,18ec <float32_rem+0x80>
    1924:	fb ff fb c8 	calli 844 <propagateFloat32NaN>
    1928:	b8 20 80 00 	mv r16,r1
    192c:	e3 ff ff f0 	bi 18ec <float32_rem+0x80>
        0, 0, 0, 0, 0, 0, 0, 0, 0, 0, 0, 0, 0, 0, 0, 0
    };
    int8 shiftCount;
      
    shiftCount = 0;
    if ( a < 0x10000 ) {
    1930:	38 01 ff ff 	mvu r1,0xffff
    1934:	50 28 00 8c 	bgeu r1,r8,1b64 <float32_rem+0x2f8>
    1938:	b9 00 18 00 	mv r3,r8
    193c:	34 02 00 08 	mvi r2,8
        shiftCount += 16;
        a <<= 16;
    }
    if ( a < 0x1000000 ) {
        shiftCount += 8;
        a <<= 8;
    1940:	3c 63 00 08 	sli r3,r3,8
    1944:	34 45 ff f8 	addi r5,r2,-8
static void
 normalizeFloat32Subnormal( bits32 aSig, int16 *zExpPtr, bits32 *zSigPtr )
{
    int8 shiftCount;

    shiftCount = countLeadingZeros32( aSig ) - 8;
    1948:	00 63 00 18 	srui r3,r3,24
    194c:	78 01 00 00 	mvhi r1,0x0
    1950:	3c 63 00 02 	sli r3,r3,2
    1954:	38 21 24 90 	ori r1,r1,0x2490
    1958:	b4 23 08 00 	add r1,r1,r3
    195c:	28 22 00 00 	lw r2,(r1+0)
    *zSigPtr = aSig<<shiftCount;
    *zExpPtr = 1 - shiftCount;
    1960:	34 01 00 01 	mvi r1,1
static void
 normalizeFloat32Subnormal( bits32 aSig, int16 *zExpPtr, bits32 *zSigPtr )
{
    int8 shiftCount;

    shiftCount = countLeadingZeros32( aSig ) - 8;
    1964:	b4 a2 10 00 	add r2,r5,r2
    *zSigPtr = aSig<<shiftCount;
    1968:	bd 02 40 00 	sl r8,r8,r2
    *zExpPtr = 1 - shiftCount;
    196c:	c8 22 88 00 	sub r17,r1,r2
            float_raise( float_flag_invalid );
            return float32_default_nan;
        }
        normalizeFloat32Subnormal( bSig, &bExp, &bSig );
    }
    if ( aExp == 0 ) {
    1970:	5c e0 00 12 	bne r7,r0,19b8 <float32_rem+0x14c>
        if ( aSig == 0 ) return a;
    1974:	44 87 ff de 	be r4,r7,18ec <float32_rem+0x80>
        0, 0, 0, 0, 0, 0, 0, 0, 0, 0, 0, 0, 0, 0, 0, 0
    };
    int8 shiftCount;
      
    shiftCount = 0;
    if ( a < 0x10000 ) {
    1978:	38 01 ff ff 	mvu r1,0xffff
    197c:	50 24 00 74 	bgeu r1,r4,1b4c <float32_rem+0x2e0>
    1980:	b8 80 18 00 	mv r3,r4
    1984:	34 02 00 08 	mvi r2,8
        shiftCount += 16;
        a <<= 16;
    }
    if ( a < 0x1000000 ) {
        shiftCount += 8;
        a <<= 8;
    1988:	3c 63 00 08 	sli r3,r3,8
    198c:	34 45 ff f8 	addi r5,r2,-8
static void
 normalizeFloat32Subnormal( bits32 aSig, int16 *zExpPtr, bits32 *zSigPtr )
{
    int8 shiftCount;

    shiftCount = countLeadingZeros32( aSig ) - 8;
    1990:	00 63 00 18 	srui r3,r3,24
    1994:	78 01 00 00 	mvhi r1,0x0
    1998:	3c 63 00 02 	sli r3,r3,2
    199c:	38 21 24 90 	ori r1,r1,0x2490
    19a0:	b4 23 08 00 	add r1,r1,r3
    19a4:	28 22 00 00 	lw r2,(r1+0)
    *zSigPtr = aSig<<shiftCount;
    *zExpPtr = 1 - shiftCount;
    19a8:	34 01 00 01 	mvi r1,1
static void
 normalizeFloat32Subnormal( bits32 aSig, int16 *zExpPtr, bits32 *zSigPtr )
{
    int8 shiftCount;

    shiftCount = countLeadingZeros32( aSig ) - 8;
    19ac:	b4 a2 10 00 	add r2,r5,r2
    *zSigPtr = aSig<<shiftCount;
    19b0:	bc 82 20 00 	sl r4,r4,r2
    *zExpPtr = 1 - shiftCount;
    19b4:	c8 22 38 00 	sub r7,r1,r2
    if ( aExp == 0 ) {
        if ( aSig == 0 ) return a;
        normalizeFloat32Subnormal( aSig, &aExp, &aSig );
    }
    expDiff = aExp - bExp;
    aSig = ( aSig | 0x00800000 )<<8;
    19b8:	78 02 00 80 	mvhi r2,0x80
    19bc:	b8 40 08 00 	mv r1,r2
    19c0:	38 21 00 00 	ori r1,r1,0x0
    19c4:	b8 81 08 00 	or r1,r4,r1
    }
    if ( aExp == 0 ) {
        if ( aSig == 0 ) return a;
        normalizeFloat32Subnormal( aSig, &aExp, &aSig );
    }
    expDiff = aExp - bExp;
    19c8:	c8 f1 98 00 	sub r19,r7,r17
    aSig = ( aSig | 0x00800000 )<<8;
    19cc:	3c 2c 00 08 	sli r12,r1,8
    bSig = ( bSig | 0x00800000 )<<8;
    if ( expDiff < 0 ) {
    19d0:	4e 60 00 04 	bge r19,r0,19e0 <float32_rem+0x174>
        if ( expDiff < -1 ) return a;
    19d4:	34 01 ff ff 	mvi r1,-1
    19d8:	5e 61 ff c5 	bne r19,r1,18ec <float32_rem+0x80>
        aSig >>= 1;
    19dc:	01 8c 00 01 	srui r12,r12,1
        if ( aSig == 0 ) return a;
        normalizeFloat32Subnormal( aSig, &aExp, &aSig );
    }
    expDiff = aExp - bExp;
    aSig = ( aSig | 0x00800000 )<<8;
    bSig = ( bSig | 0x00800000 )<<8;
    19e0:	38 42 00 00 	ori r2,r2,0x0
    19e4:	b9 02 08 00 	or r1,r8,r2
    19e8:	3c 2d 00 08 	sli r13,r1,8
    if ( expDiff < 0 ) {
        if ( expDiff < -1 ) return a;
        aSig >>= 1;
    }
    q = ( bSig <= aSig );
    19ec:	f1 8d 28 00 	cmpgeu r5,r12,r13
    if ( q ) aSig -= bSig;
    19f0:	44 a0 00 02 	be r5,r0,19f8 <float32_rem+0x18c>
    19f4:	c9 8d 60 00 	sub r12,r12,r13
    expDiff -= 32;
    19f8:	36 6f ff e0 	addi r15,r19,-32
    while ( 0 < expDiff ) {
    19fc:	01 ae 00 02 	srui r14,r13,2
    1a00:	b9 e0 58 00 	mv r11,r15
        q = estimateDiv64To32( aSig, 0, bSig );
        q = ( 2 < q ) ? q - 2 : 0;
    1a04:	34 12 00 02 	mvi r18,2
        aSig >>= 1;
    }
    q = ( bSig <= aSig );
    if ( q ) aSig -= bSig;
    expDiff -= 32;
    while ( 0 < expDiff ) {
    1a08:	49 e0 00 02 	bg r15,r0,1a10 <float32_rem+0x1a4>
    1a0c:	e0 00 00 14 	bi 1a5c <float32_rem+0x1f0>
        q = estimateDiv64To32( aSig, 0, bSig );
    1a10:	b9 80 08 00 	mv r1,r12
    1a14:	34 02 00 00 	mvi r2,0
    1a18:	b9 a0 18 00 	mv r3,r13
    1a1c:	fb ff fb 1d 	calli 690 <estimateDiv64To32>
        q = ( 2 < q ) ? q - 2 : 0;
    1a20:	34 25 ff fe 	addi r5,r1,-2
    1a24:	89 c5 10 00 	mul r2,r14,r5
    1a28:	34 0c 00 00 	mvi r12,0
    1a2c:	54 32 00 26 	bgu r1,r18,1ac4 <float32_rem+0x258>
    1a30:	b9 80 28 00 	mv r5,r12
        aSig = - ( ( bSig>>2 ) * q );
        expDiff -= 30;
    1a34:	35 6b ff e2 	addi r11,r11,-30
        aSig >>= 1;
    }
    q = ( bSig <= aSig );
    if ( q ) aSig -= bSig;
    expDiff -= 32;
    while ( 0 < expDiff ) {
    1a38:	49 60 ff f6 	bg r11,r0,1a10 <float32_rem+0x1a4>
with respect to the corresponding value `b'.  The operation is performed
according to the IEC/IEEE Standard for Binary Floating-point Arithmetic.
-------------------------------------------------------------------------------
*/
float32 float32_rem( float32 a, float32 b )
{
    1a3c:	34 02 00 1e 	mvi r2,30
    1a40:	36 61 ff df 	addi r1,r19,-33
    1a44:	8c 22 08 00 	divu r1,r1,r2
    1a48:	35 e3 ff e2 	addi r3,r15,-30
    1a4c:	3c 22 00 05 	sli r2,r1,5
    1a50:	b4 21 08 00 	add r1,r1,r1
    1a54:	c8 22 08 00 	sub r1,r1,r2
    1a58:	b4 61 78 00 	add r15,r3,r1
        q = estimateDiv64To32( aSig, 0, bSig );
        q = ( 2 < q ) ? q - 2 : 0;
        aSig = - ( ( bSig>>2 ) * q );
        expDiff -= 30;
    }
    expDiff += 32;
    1a5c:	35 eb 00 20 	addi r11,r15,32
        q >>= 32 - expDiff;
        bSig >>= 2;
        aSig = ( ( aSig>>1 )<<( expDiff - 1 ) ) - bSig * q;
    }
    else {
        aSig >>= 2;
    1a60:	01 83 00 02 	srui r3,r12,2
        q = ( 2 < q ) ? q - 2 : 0;
        aSig = - ( ( bSig>>2 ) * q );
        expDiff -= 30;
    }
    expDiff += 32;
    if ( 0 < expDiff ) {
    1a64:	4c 0b 00 0e 	bge r0,r11,1a9c <float32_rem+0x230>
        q = estimateDiv64To32( aSig, 0, bSig );
    1a68:	34 02 00 00 	mvi r2,0
    1a6c:	b9 a0 18 00 	mv r3,r13
    1a70:	b9 80 08 00 	mv r1,r12
    1a74:	fb ff fb 07 	calli 690 <estimateDiv64To32>
    1a78:	b8 20 10 00 	mv r2,r1
        q = ( 2 < q ) ? q - 2 : 0;
    1a7c:	34 01 00 02 	mvi r1,2
    1a80:	54 41 00 2e 	bgu r2,r1,1b38 <float32_rem+0x2cc>
    1a84:	34 05 00 00 	mvi r5,0
    1a88:	b8 a0 18 00 	mv r3,r5
        q >>= 32 - expDiff;
        bSig >>= 2;
        aSig = ( ( aSig>>1 )<<( expDiff - 1 ) ) - bSig * q;
    1a8c:	01 81 00 01 	srui r1,r12,1
    1a90:	35 62 ff ff 	addi r2,r11,-1
    1a94:	bc 22 08 00 	sl r1,r1,r2
    1a98:	c8 23 18 00 	sub r3,r1,r3
    }
    else {
        aSig >>= 2;
    1a9c:	c8 0e 30 00 	sub r6,r0,r14
    1aa0:	c8 6e 10 00 	sub r2,r3,r14
        bSig >>= 2;
    }
    do {
        alternateASig = aSig;
        ++q;
    1aa4:	b8 40 38 00 	mv r7,r2
    1aa8:	b4 46 10 00 	add r2,r2,r6
        aSig -= bSig;
    } while ( 0 <= (sbits32) aSig );
    1aac:	b4 4e 08 00 	add r1,r2,r14
        aSig >>= 2;
        bSig >>= 2;
    }
    do {
        alternateASig = aSig;
        ++q;
    1ab0:	34 a5 00 01 	addi r5,r5,1
    1ab4:	b4 c3 20 00 	add r4,r6,r3
        aSig -= bSig;
    } while ( 0 <= (sbits32) aSig );
    1ab8:	48 01 00 0f 	bg r0,r1,1af4 <float32_rem+0x288>
    1abc:	b8 80 18 00 	mv r3,r4
    1ac0:	e3 ff ff f9 	bi 1aa4 <float32_rem+0x238>
    q = ( bSig <= aSig );
    if ( q ) aSig -= bSig;
    expDiff -= 32;
    while ( 0 < expDiff ) {
        q = estimateDiv64To32( aSig, 0, bSig );
        q = ( 2 < q ) ? q - 2 : 0;
    1ac4:	c8 02 60 00 	sub r12,r0,r2
    1ac8:	e3 ff ff db 	bi 1a34 <float32_rem+0x1c8>
    aSign = extractFloat32Sign( a );
    bSig = extractFloat32Frac( b );
    bExp = extractFloat32Exp( b );
    bSign = extractFloat32Sign( b );
    if ( aExp == 0xFF ) {
        if ( aSig || ( ( bExp == 0xFF ) && bSig ) ) {
    1acc:	5c 80 00 05 	bne r4,r0,1ae0 <float32_rem+0x274>
    1ad0:	e6 23 08 00 	cmpe r1,r17,r3
    1ad4:	7d 02 00 00 	cmpnei r2,r8,0
    1ad8:	a0 22 08 00 	and r1,r1,r2
    1adc:	44 24 ff 7e 	be r1,r4,18d4 <float32_rem+0x68>
            return propagateFloat32NaN( a, b );
    1ae0:	ba 00 08 00 	mv r1,r16
    1ae4:	b8 c0 10 00 	mv r2,r6
    1ae8:	fb ff fb 57 	calli 844 <propagateFloat32NaN>
    1aec:	b8 20 80 00 	mv r16,r1
    1af0:	e3 ff ff 7f 	bi 18ec <float32_rem+0x80>
    do {
        alternateASig = aSig;
        ++q;
        aSig -= bSig;
    } while ( 0 <= (sbits32) aSig );
    sigMean = aSig + alternateASig;
    1af4:	b4 64 30 00 	add r6,r3,r4
    if ( ( sigMean < 0 ) || ( ( sigMean == 0 ) && ( q & 1 ) ) ) {
    1af8:	48 06 00 04 	bg r0,r6,1b08 <float32_rem+0x29c>
    1afc:	5c c0 00 0d 	bne r6,r0,1b30 <float32_rem+0x2c4>
    1b00:	20 a1 00 01 	andi r1,r5,0x1
    1b04:	44 26 00 0b 	be r1,r6,1b30 <float32_rem+0x2c4>
    1b08:	b8 60 38 00 	mv r7,r3
        aSig = alternateASig;
    }
    zSign = ( (sbits32) aSig < 0 );
    1b0c:	00 e4 00 1f 	srui r4,r7,31
    if ( zSign ) aSig = - aSig;
    1b10:	44 80 00 02 	be r4,r0,1b18 <float32_rem+0x2ac>
    1b14:	c8 03 18 00 	sub r3,r0,r3
    return normalizeRoundAndPackFloat32( aSign ^ zSign, bExp, aSig );
    1b18:	02 01 00 1f 	srui r1,r16,31
    1b1c:	ba 20 10 00 	mv r2,r17
    1b20:	98 81 08 00 	xor r1,r4,r1
    1b24:	fb ff fb db 	calli a90 <normalizeRoundAndPackFloat32>
    1b28:	b8 20 80 00 	mv r16,r1
    1b2c:	e3 ff ff 70 	bi 18ec <float32_rem+0x80>
        alternateASig = aSig;
        ++q;
        aSig -= bSig;
    } while ( 0 <= (sbits32) aSig );
    sigMean = aSig + alternateASig;
    if ( ( sigMean < 0 ) || ( ( sigMean == 0 ) && ( q & 1 ) ) ) {
    1b30:	b8 80 18 00 	mv r3,r4
    1b34:	e3 ff ff f6 	bi 1b0c <float32_rem+0x2a0>
        expDiff -= 30;
    }
    expDiff += 32;
    if ( 0 < expDiff ) {
        q = estimateDiv64To32( aSig, 0, bSig );
        q = ( 2 < q ) ? q - 2 : 0;
    1b38:	34 42 ff fe 	addi r2,r2,-2
    1b3c:	c8 0b 08 00 	sub r1,r0,r11
    1b40:	80 41 28 00 	sru r5,r2,r1
    1b44:	88 ae 18 00 	mul r3,r5,r14
    1b48:	e3 ff ff d1 	bi 1a8c <float32_rem+0x220>
    shiftCount = 0;
    if ( a < 0x10000 ) {
        shiftCount += 16;
        a <<= 16;
    }
    if ( a < 0x1000000 ) {
    1b4c:	78 01 00 ff 	mvhi r1,0xff
    int8 shiftCount;
      
    shiftCount = 0;
    if ( a < 0x10000 ) {
        shiftCount += 16;
        a <<= 16;
    1b50:	3c 83 00 10 	sli r3,r4,16
    }
    if ( a < 0x1000000 ) {
    1b54:	38 21 ff ff 	ori r1,r1,0xffff
    1b58:	50 23 00 09 	bgeu r1,r3,1b7c <float32_rem+0x310>
    1b5c:	34 05 00 08 	mvi r5,8
    1b60:	e3 ff ff 8c 	bi 1990 <float32_rem+0x124>
    1b64:	78 01 00 ff 	mvhi r1,0xff
    int8 shiftCount;
      
    shiftCount = 0;
    if ( a < 0x10000 ) {
        shiftCount += 16;
        a <<= 16;
    1b68:	3d 03 00 10 	sli r3,r8,16
    }
    if ( a < 0x1000000 ) {
    1b6c:	38 21 ff ff 	ori r1,r1,0xffff
    1b70:	50 23 00 05 	bgeu r1,r3,1b84 <float32_rem+0x318>
    1b74:	34 05 00 08 	mvi r5,8
    1b78:	e3 ff ff 74 	bi 1948 <float32_rem+0xdc>
    1b7c:	34 02 00 18 	mvi r2,24
    1b80:	e3 ff ff 82 	bi 1988 <float32_rem+0x11c>
    1b84:	34 02 00 18 	mvi r2,24
    1b88:	e3 ff ff 6e 	bi 1940 <float32_rem+0xd4>

00001b8c <float32_sqrt>:
The operation is performed according to the IEC/IEEE Standard for Binary
Floating-point Arithmetic.
-------------------------------------------------------------------------------
*/
float32 float32_sqrt( float32 a )
{
    1b8c:	37 9c ff ec 	addi sp,sp,-20
    1b90:	5b 8b 00 14 	sw (sp+20),r11
    1b94:	5b 8c 00 10 	sw (sp+16),r12
    1b98:	5b 8d 00 0c 	sw (sp+12),r13
    1b9c:	5b 8e 00 08 	sw (sp+8),r14
    1ba0:	5b 9d 00 04 	sw (sp+4),ra
-------------------------------------------------------------------------------
*/
INLINE int16 extractFloat32Exp( float32 a )
{

    return ( a>>23 ) & 0xFF;
    1ba4:	00 22 00 17 	srui r2,r1,23
-------------------------------------------------------------------------------
*/
INLINE bits32 extractFloat32Frac( float32 a )
{

    return a & 0x007FFFFF;
    1ba8:	78 03 00 7f 	mvhi r3,0x7f
    1bac:	38 63 ff ff 	ori r3,r3,0xffff
-------------------------------------------------------------------------------
*/
INLINE int16 extractFloat32Exp( float32 a )
{

    return ( a>>23 ) & 0xFF;
    1bb0:	20 4c 00 ff 	andi r12,r2,0xff
    bits32 term0, term1;

    aSig = extractFloat32Frac( a );
    aExp = extractFloat32Exp( a );
    aSign = extractFloat32Sign( a );
    if ( aExp == 0xFF ) {
    1bb4:	34 02 00 ff 	mvi r2,255
-------------------------------------------------------------------------------
*/
INLINE bits32 extractFloat32Frac( float32 a )
{

    return a & 0x007FFFFF;
    1bb8:	a0 23 28 00 	and r5,r1,r3
The operation is performed according to the IEC/IEEE Standard for Binary
Floating-point Arithmetic.
-------------------------------------------------------------------------------
*/
float32 float32_sqrt( float32 a )
{
    1bbc:	b8 20 20 00 	mv r4,r1
-------------------------------------------------------------------------------
*/
INLINE flag extractFloat32Sign( float32 a )
{

    return a>>31;
    1bc0:	00 23 00 1f 	srui r3,r1,31
    bits32 term0, term1;

    aSig = extractFloat32Frac( a );
    aExp = extractFloat32Exp( a );
    aSign = extractFloat32Sign( a );
    if ( aExp == 0xFF ) {
    1bc4:	45 82 00 55 	be r12,r2,1d18 <float32_sqrt+0x18c>
        if ( aSig ) return propagateFloat32NaN( a, 0 );
        if ( ! aSign ) return a;
        float_raise( float_flag_invalid );
        return float32_default_nan;
    }
    if ( aSign ) {
    1bc8:	44 60 00 11 	be r3,r0,1c0c <float32_sqrt+0x80>
        if ( ( aExp | aSig ) == 0 ) return a;
    1bcc:	b9 85 08 00 	or r1,r12,r5
    1bd0:	44 20 00 07 	be r1,r0,1bec <float32_sqrt+0x60>
    1bd4:	78 02 00 00 	mvhi r2,0x0
    1bd8:	38 42 28 ec 	ori r2,r2,0x28ec
    1bdc:	28 41 00 00 	lw r1,(r2+0)
    1be0:	34 04 ff ff 	mvi r4,-1
    1be4:	38 21 00 10 	ori r1,r1,0x10
    1be8:	58 41 00 00 	sw (r2+0),r1
        }
    }
    shift32RightJamming( zSig, 1, &zSig );
    return roundAndPackFloat32( 0, zExp, zSig );

}
    1bec:	b8 80 08 00 	mv r1,r4
    1bf0:	2b 9d 00 04 	lw ra,(sp+4)
    1bf4:	2b 8b 00 14 	lw r11,(sp+20)
    1bf8:	2b 8c 00 10 	lw r12,(sp+16)
    1bfc:	2b 8d 00 0c 	lw r13,(sp+12)
    1c00:	2b 8e 00 08 	lw r14,(sp+8)
    1c04:	37 9c 00 14 	addi sp,sp,20
    1c08:	c3 a0 00 00 	ret
    if ( aSign ) {
        if ( ( aExp | aSig ) == 0 ) return a;
        float_raise( float_flag_invalid );
        return float32_default_nan;
    }
    if ( aExp == 0 ) {
    1c0c:	5d 83 00 13 	bne r12,r3,1c58 <float32_sqrt+0xcc>
        if ( aSig == 0 ) return 0;
    1c10:	b8 a0 20 00 	mv r4,r5
    1c14:	44 ac ff f6 	be r5,r12,1bec <float32_sqrt+0x60>
        0, 0, 0, 0, 0, 0, 0, 0, 0, 0, 0, 0, 0, 0, 0, 0
    };
    int8 shiftCount;
      
    shiftCount = 0;
    if ( a < 0x10000 ) {
    1c18:	38 01 ff ff 	mvu r1,0xffff
    1c1c:	50 25 00 86 	bgeu r1,r5,1e34 <float32_sqrt+0x2a8>
    1c20:	b8 a0 18 00 	mv r3,r5
    1c24:	34 02 00 08 	mvi r2,8
        shiftCount += 16;
        a <<= 16;
    }
    if ( a < 0x1000000 ) {
        shiftCount += 8;
        a <<= 8;
    1c28:	3c 63 00 08 	sli r3,r3,8
    1c2c:	34 44 ff f8 	addi r4,r2,-8
static void
 normalizeFloat32Subnormal( bits32 aSig, int16 *zExpPtr, bits32 *zSigPtr )
{
    int8 shiftCount;

    shiftCount = countLeadingZeros32( aSig ) - 8;
    1c30:	00 63 00 18 	srui r3,r3,24
    1c34:	78 01 00 00 	mvhi r1,0x0
    1c38:	3c 63 00 02 	sli r3,r3,2
    1c3c:	38 21 24 90 	ori r1,r1,0x2490
    1c40:	b4 23 08 00 	add r1,r1,r3
    1c44:	28 22 00 00 	lw r2,(r1+0)
    *zSigPtr = aSig<<shiftCount;
    *zExpPtr = 1 - shiftCount;
    1c48:	34 01 00 01 	mvi r1,1
static void
 normalizeFloat32Subnormal( bits32 aSig, int16 *zExpPtr, bits32 *zSigPtr )
{
    int8 shiftCount;

    shiftCount = countLeadingZeros32( aSig ) - 8;
    1c4c:	b4 82 10 00 	add r2,r4,r2
    *zSigPtr = aSig<<shiftCount;
    1c50:	bc a2 28 00 	sl r5,r5,r2
    *zExpPtr = 1 - shiftCount;
    1c54:	c8 22 60 00 	sub r12,r1,r2
    if ( aExp == 0 ) {
        if ( aSig == 0 ) return 0;
        normalizeFloat32Subnormal( aSig, &aExp, &aSig );
    }
    zExp = ( ( aExp - 0x7F )>>1 ) + 0x7E;
    aSig = ( aSig | 0x00800000 )<<8;
    1c58:	78 01 00 80 	mvhi r1,0x80
    1c5c:	38 21 00 00 	ori r1,r1,0x0
    1c60:	b8 a1 08 00 	or r1,r5,r1
    1c64:	3c 2d 00 08 	sli r13,r1,8
    };
    int8 index;
    bits32 z;

    index = ( a>>27 ) & 15;
    if ( aExp & 1 ) {
    1c68:	21 8e 00 01 	andi r14,r12,0x1
        0x0200, 0x0179, 0x0109, 0x00AF, 0x0068, 0x0034, 0x0012, 0x0002
    };
    int8 index;
    bits32 z;

    index = ( a>>27 ) & 15;
    1c6c:	01 a1 00 1b 	srui r1,r13,27
    1c70:	20 23 00 0f 	andi r3,r1,0xf
    if ( aExp & 1 ) {
    1c74:	5d c0 00 2c 	bne r14,r0,1d24 <float32_sqrt+0x198>
        z = 0x4000 + ( a>>17 ) - sqrtOddAdjustments[ index ];
        z = ( ( a / z )<<14 ) + ( z<<15 );
        a >>= 1;
    }
    else {
        z = 0x8000 + ( a>>17 ) - sqrtEvenAdjustments[ index ];
    1c78:	78 01 00 00 	mvhi r1,0x0
    1c7c:	b4 63 10 00 	add r2,r3,r3
    1c80:	38 21 28 90 	ori r1,r1,0x2890
    1c84:	b4 22 08 00 	add r1,r1,r2
    1c88:	2c 23 00 00 	lhu r3,(r1+0)
    1c8c:	01 a2 00 11 	srui r2,r13,17
    1c90:	38 01 80 00 	mvu r1,0x8000
    1c94:	b4 41 10 00 	add r2,r2,r1
    1c98:	c8 43 10 00 	sub r2,r2,r3
        z = a / z + z;
    1c9c:	8d a2 08 00 	divu r1,r13,r2
        z = ( 0x20000 <= z ) ? 0xFFFF8000 : ( z<<15 );
    1ca0:	78 03 00 01 	mvhi r3,0x1
        z = ( ( a / z )<<14 ) + ( z<<15 );
        a >>= 1;
    }
    else {
        z = 0x8000 + ( a>>17 ) - sqrtEvenAdjustments[ index ];
        z = a / z + z;
    1ca4:	b4 22 08 00 	add r1,r1,r2
        z = ( 0x20000 <= z ) ? 0xFFFF8000 : ( z<<15 );
    1ca8:	38 63 ff ff 	ori r3,r3,0xffff
    1cac:	3c 2b 00 0f 	sli r11,r1,15
    1cb0:	50 61 00 02 	bgeu r3,r1,1cb8 <float32_sqrt+0x12c>
    1cb4:	34 0b 80 00 	mvi r11,-32768
        if ( z <= a ) return (bits32) ( ( (sbits32) a )>>1 );
    1cb8:	b9 a0 20 00 	mv r4,r13
    1cbc:	55 6d 00 27 	bgu r11,r13,1d58 <float32_sqrt+0x1cc>
    1cc0:	15 a1 00 01 	sri r1,r13,1
    zSig = estimateSqrt32( aExp, aSig ) + 2;
    1cc4:	34 26 00 02 	addi r6,r1,2
    if ( ( zSig & 0x7F ) <= 5 ) {
    1cc8:	20 c2 00 7f 	andi r2,r6,0x7f
    1ccc:	34 01 00 05 	mvi r1,5
    1cd0:	50 22 00 2a 	bgeu r1,r2,1d78 <float32_sqrt+0x1ec>
    1cd4:	00 c2 00 01 	srui r2,r6,1
    1cd8:	20 c1 00 01 	andi r1,r6,0x1
    1cdc:	b8 22 18 00 	or r3,r1,r2
            }
            zSig |= ( ( rem0 | rem1 ) != 0 );
        }
    }
    shift32RightJamming( zSig, 1, &zSig );
    return roundAndPackFloat32( 0, zExp, zSig );
    1ce0:	35 82 ff 81 	addi r2,r12,-127
    1ce4:	14 42 00 01 	sri r2,r2,1
    1ce8:	34 01 00 00 	mvi r1,0
    1cec:	34 42 00 7e 	addi r2,r2,126
    1cf0:	fb ff fb 04 	calli 900 <roundAndPackFloat32>
    1cf4:	b8 20 20 00 	mv r4,r1

}
    1cf8:	b8 80 08 00 	mv r1,r4
    1cfc:	2b 9d 00 04 	lw ra,(sp+4)
    1d00:	2b 8b 00 14 	lw r11,(sp+20)
    1d04:	2b 8c 00 10 	lw r12,(sp+16)
    1d08:	2b 8d 00 0c 	lw r13,(sp+12)
    1d0c:	2b 8e 00 08 	lw r14,(sp+8)
    1d10:	37 9c 00 14 	addi sp,sp,20
    1d14:	c3 a0 00 00 	ret

    aSig = extractFloat32Frac( a );
    aExp = extractFloat32Exp( a );
    aSign = extractFloat32Sign( a );
    if ( aExp == 0xFF ) {
        if ( aSig ) return propagateFloat32NaN( a, 0 );
    1d18:	5c a0 00 43 	bne r5,r0,1e24 <float32_sqrt+0x298>
        if ( ! aSign ) return a;
    1d1c:	5c 65 ff ae 	bne r3,r5,1bd4 <float32_sqrt+0x48>
    1d20:	e3 ff ff b3 	bi 1bec <float32_sqrt+0x60>
    int8 index;
    bits32 z;

    index = ( a>>27 ) & 15;
    if ( aExp & 1 ) {
        z = 0x4000 + ( a>>17 ) - sqrtOddAdjustments[ index ];
    1d24:	78 02 00 00 	mvhi r2,0x0
    1d28:	b4 63 08 00 	add r1,r3,r3
    1d2c:	38 42 28 b0 	ori r2,r2,0x28b0
    1d30:	b4 41 10 00 	add r2,r2,r1
    1d34:	2c 43 00 00 	lhu r3,(r2+0)
    1d38:	01 a1 00 11 	srui r1,r13,17
        z = ( ( a / z )<<14 ) + ( z<<15 );
        a >>= 1;
    1d3c:	01 a4 00 01 	srui r4,r13,1
    int8 index;
    bits32 z;

    index = ( a>>27 ) & 15;
    if ( aExp & 1 ) {
        z = 0x4000 + ( a>>17 ) - sqrtOddAdjustments[ index ];
    1d40:	34 21 40 00 	addi r1,r1,16384
    1d44:	c8 23 08 00 	sub r1,r1,r3
        z = ( ( a / z )<<14 ) + ( z<<15 );
    1d48:	8d a1 10 00 	divu r2,r13,r1
    1d4c:	3c 21 00 0f 	sli r1,r1,15
    1d50:	3c 42 00 0e 	sli r2,r2,14
    1d54:	b4 41 58 00 	add r11,r2,r1
        z = 0x8000 + ( a>>17 ) - sqrtEvenAdjustments[ index ];
        z = a / z + z;
        z = ( 0x20000 <= z ) ? 0xFFFF8000 : ( z<<15 );
        if ( z <= a ) return (bits32) ( ( (sbits32) a )>>1 );
    }
    return ( ( estimateDiv64To32( a, 0, z ) )>>1 ) + ( z>>1 );
    1d58:	34 02 00 00 	mvi r2,0
    1d5c:	b8 80 08 00 	mv r1,r4
    1d60:	b9 60 18 00 	mv r3,r11
    1d64:	fb ff fa 4b 	calli 690 <estimateDiv64To32>
    1d68:	00 21 00 01 	srui r1,r1,1
    1d6c:	01 62 00 01 	srui r2,r11,1
    1d70:	b4 41 08 00 	add r1,r2,r1
    1d74:	e3 ff ff d4 	bi 1cc4 <float32_sqrt+0x138>
    }
    zExp = ( ( aExp - 0x7F )>>1 ) + 0x7E;
    aSig = ( aSig | 0x00800000 )<<8;
    zSig = estimateSqrt32( aExp, aSig ) + 2;
    if ( ( zSig & 0x7F ) <= 5 ) {
        if ( zSig < 2 ) {
    1d78:	34 01 00 01 	mvi r1,1
    1d7c:	54 c1 00 04 	bgu r6,r1,1d8c <float32_sqrt+0x200>
    1d80:	78 03 7f ff 	mvhi r3,0x7fff
    1d84:	38 63 ff ff 	ori r3,r3,0xffff
    1d88:	e3 ff ff d6 	bi 1ce0 <float32_sqrt+0x154>
    aLow = a;
    aHigh = a>>16;
    bLow = b;
    bHigh = b>>16;
    z1 = ( (bits32) aLow ) * bLow;
    zMiddleA = ( (bits32) aLow ) * bHigh;
    1d8c:	00 c3 00 10 	srui r3,r6,16

    aLow = a;
    aHigh = a>>16;
    bLow = b;
    bHigh = b>>16;
    z1 = ( (bits32) aLow ) * bLow;
    1d90:	20 c4 ff ff 	andi r4,r6,0xffff
    zMiddleA = ( (bits32) aLow ) * bHigh;
    1d94:	88 64 08 00 	mul r1,r3,r4
    zMiddleB = ( (bits32) aHigh ) * bLow;
    z0 = ( (bits32) aHigh ) * bHigh;
    zMiddleA += zMiddleB;
    1d98:	b4 21 28 00 	add r5,r1,r1
    z0 += ( ( (bits32) ( zMiddleA < zMiddleB ) )<<16 ) + ( zMiddleA>>16 );
    1d9c:	54 25 00 2c 	bgu r1,r5,1e4c <float32_sqrt+0x2c0>
    1da0:	34 07 00 00 	mvi r7,0

    aLow = a;
    aHigh = a>>16;
    bLow = b;
    bHigh = b>>16;
    z1 = ( (bits32) aLow ) * bLow;
    1da4:	88 84 20 00 	mul r4,r4,r4
    zMiddleA = ( (bits32) aLow ) * bHigh;
    zMiddleB = ( (bits32) aHigh ) * bLow;
    z0 = ( (bits32) aHigh ) * bHigh;
    zMiddleA += zMiddleB;
    z0 += ( ( (bits32) ( zMiddleA < zMiddleB ) )<<16 ) + ( zMiddleA>>16 );
    zMiddleA <<= 16;
    1da8:	3c a2 00 10 	sli r2,r5,16
    z1 = ( (bits32) aLow ) * bLow;
    zMiddleA = ( (bits32) aLow ) * bHigh;
    zMiddleB = ( (bits32) aHigh ) * bLow;
    z0 = ( (bits32) aHigh ) * bHigh;
    zMiddleA += zMiddleB;
    z0 += ( ( (bits32) ( zMiddleA < zMiddleB ) )<<16 ) + ( zMiddleA>>16 );
    1dac:	88 63 18 00 	mul r3,r3,r3
    1db0:	81 ae 08 00 	sru r1,r13,r14
    zMiddleA <<= 16;
    z1 += zMiddleA;
    1db4:	b4 44 20 00 	add r4,r2,r4
    z1 = ( (bits32) aLow ) * bLow;
    zMiddleA = ( (bits32) aLow ) * bHigh;
    zMiddleB = ( (bits32) aHigh ) * bLow;
    z0 = ( (bits32) aHigh ) * bHigh;
    zMiddleA += zMiddleB;
    z0 += ( ( (bits32) ( zMiddleA < zMiddleB ) )<<16 ) + ( zMiddleA>>16 );
    1db8:	00 a5 00 10 	srui r5,r5,16
    1dbc:	c8 23 08 00 	sub r1,r1,r3
 sub64(
     bits32 a0, bits32 a1, bits32 b0, bits32 b1, bits32 *z0Ptr, bits32 *z1Ptr )
{

    *z1Ptr = a1 - b1;
    *z0Ptr = a0 - b0 - ( a1 < b1 );
    1dc0:	f4 44 10 00 	cmpgu r2,r2,r4
    z1 = ( (bits32) aLow ) * bLow;
    zMiddleA = ( (bits32) aLow ) * bHigh;
    zMiddleB = ( (bits32) aHigh ) * bLow;
    z0 = ( (bits32) aHigh ) * bHigh;
    zMiddleA += zMiddleB;
    z0 += ( ( (bits32) ( zMiddleA < zMiddleB ) )<<16 ) + ( zMiddleA>>16 );
    1dc4:	c8 25 08 00 	sub r1,r1,r5
 sub64(
     bits32 a0, bits32 a1, bits32 b0, bits32 b1, bits32 *z0Ptr, bits32 *z1Ptr )
{

    *z1Ptr = a1 - b1;
    *z0Ptr = a0 - b0 - ( a1 < b1 );
    1dc8:	7c 83 00 00 	cmpnei r3,r4,0
    1dcc:	c8 22 08 00 	sub r1,r1,r2
    1dd0:	c8 23 08 00 	sub r1,r1,r3
    1dd4:	c8 27 28 00 	sub r5,r1,r7
INLINE void
 sub64(
     bits32 a0, bits32 a1, bits32 b0, bits32 b1, bits32 *z0Ptr, bits32 *z1Ptr )
{

    *z1Ptr = a1 - b1;
    1dd8:	c8 04 18 00 	sub r3,r0,r4
        }
        else {
            aSig >>= aExp & 1;
            mul32To64( zSig, zSig, &term0, &term1 );
            sub64( aSig, 0, term0, term1, &rem0, &rem1 );
            while ( (sbits32) rem0 < 0 ) {
    1ddc:	4c a0 00 0b 	bge r5,r0,1e08 <float32_sqrt+0x27c>
                --zSig;
    1de0:	34 c6 ff ff 	addi r6,r6,-1
 add64(
     bits32 a0, bits32 a1, bits32 b0, bits32 b1, bits32 *z0Ptr, bits32 *z1Ptr )
{
    bits32 z1;

    z1 = a1 + b1;
    1de4:	b4 c6 08 00 	add r1,r6,r6
    1de8:	38 21 00 01 	ori r1,r1,0x1
        }
        else {
            aSig >>= aExp & 1;
            mul32To64( zSig, zSig, &term0, &term1 );
            sub64( aSig, 0, term0, term1, &rem0, &rem1 );
            while ( (sbits32) rem0 < 0 ) {
    1dec:	b8 60 10 00 	mv r2,r3
    1df0:	b4 23 18 00 	add r3,r1,r3
    *z1Ptr = z1;
    *z0Ptr = a0 + b0 + ( z1 < a1 );
    1df4:	f4 43 10 00 	cmpgu r2,r2,r3
    1df8:	00 c1 00 1f 	srui r1,r6,31
    1dfc:	b4 22 08 00 	add r1,r1,r2
    1e00:	b4 a1 28 00 	add r5,r5,r1
    1e04:	48 05 ff f7 	bg r0,r5,1de0 <float32_sqrt+0x254>
                --zSig;
                shortShift64Left( 0, zSig, 1, &term0, &term1 );
                term1 |= 1;
                add64( rem0, rem1, term0, term1, &rem0, &rem1 );
            }
            zSig |= ( ( rem0 | rem1 ) != 0 );
    1e08:	b8 a3 08 00 	or r1,r5,r3
    1e0c:	7c 21 00 00 	cmpnei r1,r1,0
    1e10:	b8 26 08 00 	or r1,r1,r6
    1e14:	00 22 00 01 	srui r2,r1,1
    1e18:	20 21 00 01 	andi r1,r1,0x1
    1e1c:	b8 22 18 00 	or r3,r1,r2
    1e20:	e3 ff ff b0 	bi 1ce0 <float32_sqrt+0x154>

    aSig = extractFloat32Frac( a );
    aExp = extractFloat32Exp( a );
    aSign = extractFloat32Sign( a );
    if ( aExp == 0xFF ) {
        if ( aSig ) return propagateFloat32NaN( a, 0 );
    1e24:	34 02 00 00 	mvi r2,0
    1e28:	fb ff fa 87 	calli 844 <propagateFloat32NaN>
    1e2c:	b8 20 20 00 	mv r4,r1
    1e30:	e3 ff ff 6f 	bi 1bec <float32_sqrt+0x60>
    shiftCount = 0;
    if ( a < 0x10000 ) {
        shiftCount += 16;
        a <<= 16;
    }
    if ( a < 0x1000000 ) {
    1e34:	78 01 00 ff 	mvhi r1,0xff
    int8 shiftCount;
      
    shiftCount = 0;
    if ( a < 0x10000 ) {
        shiftCount += 16;
        a <<= 16;
    1e38:	3c a3 00 10 	sli r3,r5,16
    }
    if ( a < 0x1000000 ) {
    1e3c:	38 21 ff ff 	ori r1,r1,0xffff
    1e40:	50 23 00 06 	bgeu r1,r3,1e58 <float32_sqrt+0x2cc>
    1e44:	34 04 00 08 	mvi r4,8
    1e48:	e3 ff ff 7a 	bi 1c30 <float32_sqrt+0xa4>
    z1 = ( (bits32) aLow ) * bLow;
    zMiddleA = ( (bits32) aLow ) * bHigh;
    zMiddleB = ( (bits32) aHigh ) * bLow;
    z0 = ( (bits32) aHigh ) * bHigh;
    zMiddleA += zMiddleB;
    z0 += ( ( (bits32) ( zMiddleA < zMiddleB ) )<<16 ) + ( zMiddleA>>16 );
    1e4c:	78 07 00 01 	mvhi r7,0x1
    1e50:	38 e7 00 00 	ori r7,r7,0x0
    1e54:	e3 ff ff d4 	bi 1da4 <float32_sqrt+0x218>
    shiftCount = 0;
    if ( a < 0x10000 ) {
        shiftCount += 16;
        a <<= 16;
    }
    if ( a < 0x1000000 ) {
    1e58:	34 02 00 18 	mvi r2,24
    1e5c:	e3 ff ff 73 	bi 1c28 <float32_sqrt+0x9c>

00001e60 <float32_eq>:
corresponding value `b', and 0 otherwise.  The comparison is performed
according to the IEC/IEEE Standard for Binary Floating-point Arithmetic.
-------------------------------------------------------------------------------
*/
flag float32_eq( float32 a, float32 b )
{
    1e60:	b8 20 20 00 	mv r4,r1

    if (    ( ( extractFloat32Exp( a ) == 0xFF ) && extractFloat32Frac( a ) )
    1e64:	00 21 00 17 	srui r1,r1,23
corresponding value `b', and 0 otherwise.  The comparison is performed
according to the IEC/IEEE Standard for Binary Floating-point Arithmetic.
-------------------------------------------------------------------------------
*/
flag float32_eq( float32 a, float32 b )
{
    1e68:	b8 40 28 00 	mv r5,r2

    if (    ( ( extractFloat32Exp( a ) == 0xFF ) && extractFloat32Frac( a ) )
    1e6c:	20 21 00 ff 	andi r1,r1,0xff
    1e70:	34 02 00 ff 	mvi r2,255
    1e74:	44 22 00 0c 	be r1,r2,1ea4 <float32_eq+0x44>
    1e78:	00 a1 00 17 	srui r1,r5,23
    1e7c:	34 02 00 ff 	mvi r2,255
    1e80:	20 21 00 ff 	andi r1,r1,0xff
    1e84:	44 22 00 16 	be r1,r2,1edc <float32_eq+0x7c>
        if ( float32_is_signaling_nan( a ) || float32_is_signaling_nan( b ) ) {
            float_raise( float_flag_invalid );
        }
        return 0;
    }
    return ( a == b ) || ( (bits32) ( ( a | b )<<1 ) == 0 );
    1e88:	34 03 00 01 	mvi r3,1
    1e8c:	44 85 00 04 	be r4,r5,1e9c <float32_eq+0x3c>
    1e90:	b8 a4 08 00 	or r1,r5,r4
    1e94:	b4 21 08 00 	add r1,r1,r1
    1e98:	64 23 00 00 	cmpei r3,r1,0

}
    1e9c:	b8 60 08 00 	mv r1,r3
    1ea0:	c3 a0 00 00 	ret
-------------------------------------------------------------------------------
*/
flag float32_eq( float32 a, float32 b )
{

    if (    ( ( extractFloat32Exp( a ) == 0xFF ) && extractFloat32Frac( a ) )
    1ea4:	78 01 00 7f 	mvhi r1,0x7f
    1ea8:	38 21 ff ff 	ori r1,r1,0xffff
    1eac:	a0 81 08 00 	and r1,r4,r1
    1eb0:	44 20 ff f2 	be r1,r0,1e78 <float32_eq+0x18>
-------------------------------------------------------------------------------
*/
flag float32_is_signaling_nan( float32 a )
{

    return ( ( ( a>>22 ) & 0x1FF ) == 0x1FE ) && ( a & 0x003FFFFF );
    1eb4:	00 81 00 16 	srui r1,r4,22
    1eb8:	34 02 01 fe 	mvi r2,510
    1ebc:	20 21 01 ff 	andi r1,r1,0x1ff
    1ec0:	44 22 00 0f 	be r1,r2,1efc <float32_eq+0x9c>
        if ( float32_is_signaling_nan( a ) || float32_is_signaling_nan( b ) ) {
            float_raise( float_flag_invalid );
        }
        return 0;
    }
    return ( a == b ) || ( (bits32) ( ( a | b )<<1 ) == 0 );
    1ec4:	00 a1 00 16 	srui r1,r5,22
    1ec8:	34 02 01 fe 	mvi r2,510
    1ecc:	20 21 01 ff 	andi r1,r1,0x1ff
    1ed0:	44 22 00 17 	be r1,r2,1f2c <float32_eq+0xcc>
    1ed4:	34 03 00 00 	mvi r3,0
    1ed8:	e3 ff ff f1 	bi 1e9c <float32_eq+0x3c>
-------------------------------------------------------------------------------
*/
flag float32_eq( float32 a, float32 b )
{

    if (    ( ( extractFloat32Exp( a ) == 0xFF ) && extractFloat32Frac( a ) )
    1edc:	78 01 00 7f 	mvhi r1,0x7f
    1ee0:	38 21 ff ff 	ori r1,r1,0xffff
    1ee4:	a0 a1 08 00 	and r1,r5,r1
    1ee8:	44 20 ff e8 	be r1,r0,1e88 <float32_eq+0x28>
    1eec:	00 81 00 16 	srui r1,r4,22
    1ef0:	34 02 01 fe 	mvi r2,510
    1ef4:	20 21 01 ff 	andi r1,r1,0x1ff
    1ef8:	5c 22 ff f3 	bne r1,r2,1ec4 <float32_eq+0x64>
    1efc:	78 01 00 3f 	mvhi r1,0x3f
    1f00:	38 21 ff ff 	ori r1,r1,0xffff
    1f04:	a0 81 08 00 	and r1,r4,r1
    1f08:	44 20 ff ef 	be r1,r0,1ec4 <float32_eq+0x64>
-------------------------------------------------------------------------------
*/
void float_raise( int8 flags )
{

    float_exception_flags |= flags;
    1f0c:	78 02 00 00 	mvhi r2,0x0
    1f10:	38 42 28 ec 	ori r2,r2,0x28ec
    1f14:	28 41 00 00 	lw r1,(r2+0)
    1f18:	34 03 00 00 	mvi r3,0
    1f1c:	38 21 00 10 	ori r1,r1,0x10
    1f20:	58 41 00 00 	sw (r2+0),r1
        }
        return 0;
    }
    return ( a == b ) || ( (bits32) ( ( a | b )<<1 ) == 0 );

}
    1f24:	b8 60 08 00 	mv r1,r3
    1f28:	c3 a0 00 00 	ret
-------------------------------------------------------------------------------
*/
flag float32_is_signaling_nan( float32 a )
{

    return ( ( ( a>>22 ) & 0x1FF ) == 0x1FE ) && ( a & 0x003FFFFF );
    1f2c:	78 01 00 3f 	mvhi r1,0x3f
    1f30:	38 21 ff ff 	ori r1,r1,0xffff
    1f34:	a0 a1 08 00 	and r1,r5,r1
    1f38:	5c 20 ff f5 	bne r1,r0,1f0c <float32_eq+0xac>
        if ( float32_is_signaling_nan( a ) || float32_is_signaling_nan( b ) ) {
            float_raise( float_flag_invalid );
        }
        return 0;
    }
    return ( a == b ) || ( (bits32) ( ( a | b )<<1 ) == 0 );
    1f3c:	34 03 00 00 	mvi r3,0
    1f40:	e3 ff ff d7 	bi 1e9c <float32_eq+0x3c>

00001f44 <float32_le>:
performed according to the IEC/IEEE Standard for Binary Floating-point
Arithmetic.
-------------------------------------------------------------------------------
*/
flag float32_le( float32 a, float32 b )
{
    1f44:	b8 20 28 00 	mv r5,r1
    flag aSign, bSign;

    if (    ( ( extractFloat32Exp( a ) == 0xFF ) && extractFloat32Frac( a ) )
    1f48:	00 21 00 17 	srui r1,r1,23
performed according to the IEC/IEEE Standard for Binary Floating-point
Arithmetic.
-------------------------------------------------------------------------------
*/
flag float32_le( float32 a, float32 b )
{
    1f4c:	b8 40 20 00 	mv r4,r2
    flag aSign, bSign;

    if (    ( ( extractFloat32Exp( a ) == 0xFF ) && extractFloat32Frac( a ) )
    1f50:	20 21 00 ff 	andi r1,r1,0xff
    1f54:	34 02 00 ff 	mvi r2,255
    1f58:	44 22 00 14 	be r1,r2,1fa8 <float32_le+0x64>
    1f5c:	00 81 00 17 	srui r1,r4,23
    1f60:	34 02 00 ff 	mvi r2,255
    1f64:	20 21 00 ff 	andi r1,r1,0xff
    1f68:	44 22 00 1c 	be r1,r2,1fd8 <float32_le+0x94>
-------------------------------------------------------------------------------
*/
INLINE flag extractFloat32Sign( float32 a )
{

    return a>>31;
    1f6c:	00 a2 00 1f 	srui r2,r5,31
        float_raise( float_flag_invalid );
        return 0;
    }
    aSign = extractFloat32Sign( a );
    bSign = extractFloat32Sign( b );
    if ( aSign != bSign ) return aSign || ( (bits32) ( ( a | b )<<1 ) == 0 );
    1f70:	00 81 00 1f 	srui r1,r4,31
    1f74:	44 41 00 07 	be r2,r1,1f90 <float32_le+0x4c>
    1f78:	5c 40 00 09 	bne r2,r0,1f9c <float32_le+0x58>
    1f7c:	b8 85 08 00 	or r1,r4,r5
    1f80:	b4 21 08 00 	add r1,r1,r1
    1f84:	64 23 00 00 	cmpei r3,r1,0
    return ( a == b ) || ( aSign ^ ( a < b ) );

}
    1f88:	b8 60 08 00 	mv r1,r3
    1f8c:	c3 a0 00 00 	ret
        return 0;
    }
    aSign = extractFloat32Sign( a );
    bSign = extractFloat32Sign( b );
    if ( aSign != bSign ) return aSign || ( (bits32) ( ( a | b )<<1 ) == 0 );
    return ( a == b ) || ( aSign ^ ( a < b ) );
    1f90:	f4 85 08 00 	cmpgu r1,r4,r5
    1f94:	fc 22 18 00 	cmpne r3,r1,r2
    1f98:	5c a4 ff fc 	bne r5,r4,1f88 <float32_le+0x44>
    1f9c:	34 03 00 01 	mvi r3,1

}
    1fa0:	b8 60 08 00 	mv r1,r3
    1fa4:	c3 a0 00 00 	ret
*/
flag float32_le( float32 a, float32 b )
{
    flag aSign, bSign;

    if (    ( ( extractFloat32Exp( a ) == 0xFF ) && extractFloat32Frac( a ) )
    1fa8:	78 01 00 7f 	mvhi r1,0x7f
    1fac:	38 21 ff ff 	ori r1,r1,0xffff
    1fb0:	a0 a1 08 00 	and r1,r5,r1
    1fb4:	44 20 ff ea 	be r1,r0,1f5c <float32_le+0x18>
-------------------------------------------------------------------------------
*/
void float_raise( int8 flags )
{

    float_exception_flags |= flags;
    1fb8:	78 02 00 00 	mvhi r2,0x0
    1fbc:	38 42 28 ec 	ori r2,r2,0x28ec
    1fc0:	28 41 00 00 	lw r1,(r2+0)
    1fc4:	34 03 00 00 	mvi r3,0
    1fc8:	38 21 00 10 	ori r1,r1,0x10
    1fcc:	58 41 00 00 	sw (r2+0),r1
    aSign = extractFloat32Sign( a );
    bSign = extractFloat32Sign( b );
    if ( aSign != bSign ) return aSign || ( (bits32) ( ( a | b )<<1 ) == 0 );
    return ( a == b ) || ( aSign ^ ( a < b ) );

}
    1fd0:	b8 60 08 00 	mv r1,r3
    1fd4:	c3 a0 00 00 	ret
*/
flag float32_le( float32 a, float32 b )
{
    flag aSign, bSign;

    if (    ( ( extractFloat32Exp( a ) == 0xFF ) && extractFloat32Frac( a ) )
    1fd8:	78 01 00 7f 	mvhi r1,0x7f
    1fdc:	38 21 ff ff 	ori r1,r1,0xffff
    1fe0:	a0 81 08 00 	and r1,r4,r1
    1fe4:	44 20 ff e2 	be r1,r0,1f6c <float32_le+0x28>
    1fe8:	78 02 00 00 	mvhi r2,0x0
    1fec:	38 42 28 ec 	ori r2,r2,0x28ec
    1ff0:	28 41 00 00 	lw r1,(r2+0)
    1ff4:	34 03 00 00 	mvi r3,0
    1ff8:	38 21 00 10 	ori r1,r1,0x10
    1ffc:	58 41 00 00 	sw (r2+0),r1
    2000:	e3 ff ff f4 	bi 1fd0 <float32_le+0x8c>

00002004 <float32_lt>:
the corresponding value `b', and 0 otherwise.  The comparison is performed
according to the IEC/IEEE Standard for Binary Floating-point Arithmetic.
-------------------------------------------------------------------------------
*/
flag float32_lt( float32 a, float32 b )
{
    2004:	b8 20 28 00 	mv r5,r1
    flag aSign, bSign;

    if (    ( ( extractFloat32Exp( a ) == 0xFF ) && extractFloat32Frac( a ) )
    2008:	00 21 00 17 	srui r1,r1,23
the corresponding value `b', and 0 otherwise.  The comparison is performed
according to the IEC/IEEE Standard for Binary Floating-point Arithmetic.
-------------------------------------------------------------------------------
*/
flag float32_lt( float32 a, float32 b )
{
    200c:	b8 40 20 00 	mv r4,r2
    flag aSign, bSign;

    if (    ( ( extractFloat32Exp( a ) == 0xFF ) && extractFloat32Frac( a ) )
    2010:	20 21 00 ff 	andi r1,r1,0xff
    2014:	34 02 00 ff 	mvi r2,255
    2018:	44 22 00 11 	be r1,r2,205c <float32_lt+0x58>
    201c:	00 81 00 17 	srui r1,r4,23
    2020:	34 02 00 ff 	mvi r2,255
    2024:	20 21 00 ff 	andi r1,r1,0xff
    2028:	44 22 00 19 	be r1,r2,208c <float32_lt+0x88>
-------------------------------------------------------------------------------
*/
INLINE flag extractFloat32Sign( float32 a )
{

    return a>>31;
    202c:	00 a2 00 1f 	srui r2,r5,31
        float_raise( float_flag_invalid );
        return 0;
    }
    aSign = extractFloat32Sign( a );
    bSign = extractFloat32Sign( b );
    if ( aSign != bSign ) return aSign && ( (bits32) ( ( a | b )<<1 ) != 0 );
    2030:	00 81 00 1f 	srui r1,r4,31
    2034:	44 41 00 1d 	be r2,r1,20a8 <float32_lt+0xa4>
    2038:	5c 40 00 04 	bne r2,r0,2048 <float32_lt+0x44>
    return ( a != b ) && ( aSign ^ ( a < b ) );
    203c:	34 03 00 00 	mvi r3,0

}
    2040:	b8 60 08 00 	mv r1,r3
    2044:	c3 a0 00 00 	ret
        float_raise( float_flag_invalid );
        return 0;
    }
    aSign = extractFloat32Sign( a );
    bSign = extractFloat32Sign( b );
    if ( aSign != bSign ) return aSign && ( (bits32) ( ( a | b )<<1 ) != 0 );
    2048:	b8 85 08 00 	or r1,r4,r5
    204c:	b4 21 08 00 	add r1,r1,r1
    2050:	7c 23 00 00 	cmpnei r3,r1,0
    return ( a != b ) && ( aSign ^ ( a < b ) );

}
    2054:	b8 60 08 00 	mv r1,r3
    2058:	c3 a0 00 00 	ret
*/
flag float32_lt( float32 a, float32 b )
{
    flag aSign, bSign;

    if (    ( ( extractFloat32Exp( a ) == 0xFF ) && extractFloat32Frac( a ) )
    205c:	78 01 00 7f 	mvhi r1,0x7f
    2060:	38 21 ff ff 	ori r1,r1,0xffff
    2064:	a0 a1 08 00 	and r1,r5,r1
    2068:	44 20 ff ed 	be r1,r0,201c <float32_lt+0x18>
    206c:	78 02 00 00 	mvhi r2,0x0
    2070:	38 42 28 ec 	ori r2,r2,0x28ec
    2074:	28 41 00 00 	lw r1,(r2+0)
    2078:	34 03 00 00 	mvi r3,0
    207c:	38 21 00 10 	ori r1,r1,0x10
    2080:	58 41 00 00 	sw (r2+0),r1
    aSign = extractFloat32Sign( a );
    bSign = extractFloat32Sign( b );
    if ( aSign != bSign ) return aSign && ( (bits32) ( ( a | b )<<1 ) != 0 );
    return ( a != b ) && ( aSign ^ ( a < b ) );

}
    2084:	b8 60 08 00 	mv r1,r3
    2088:	c3 a0 00 00 	ret
*/
flag float32_lt( float32 a, float32 b )
{
    flag aSign, bSign;

    if (    ( ( extractFloat32Exp( a ) == 0xFF ) && extractFloat32Frac( a ) )
    208c:	78 01 00 7f 	mvhi r1,0x7f
    2090:	38 21 ff ff 	ori r1,r1,0xffff
    2094:	a0 81 08 00 	and r1,r4,r1
    2098:	5c 20 ff f5 	bne r1,r0,206c <float32_lt+0x68>
-------------------------------------------------------------------------------
*/
INLINE flag extractFloat32Sign( float32 a )
{

    return a>>31;
    209c:	00 a2 00 1f 	srui r2,r5,31
        float_raise( float_flag_invalid );
        return 0;
    }
    aSign = extractFloat32Sign( a );
    bSign = extractFloat32Sign( b );
    if ( aSign != bSign ) return aSign && ( (bits32) ( ( a | b )<<1 ) != 0 );
    20a0:	00 81 00 1f 	srui r1,r4,31
    20a4:	5c 41 ff e5 	bne r2,r1,2038 <float32_lt+0x34>
    return ( a != b ) && ( aSign ^ ( a < b ) );
    20a8:	f4 85 08 00 	cmpgu r1,r4,r5
    20ac:	fc 22 18 00 	cmpne r3,r1,r2
    20b0:	44 a4 ff e3 	be r5,r4,203c <float32_lt+0x38>

}
    20b4:	b8 60 08 00 	mv r1,r3
    20b8:	c3 a0 00 00 	ret

000020bc <float32_eq_signaling>:
if either operand is a NaN.  Otherwise, the comparison is performed
according to the IEC/IEEE Standard for Binary Floating-point Arithmetic.
-------------------------------------------------------------------------------
*/
flag float32_eq_signaling( float32 a, float32 b )
{
    20bc:	b8 20 28 00 	mv r5,r1

    if (    ( ( extractFloat32Exp( a ) == 0xFF ) && extractFloat32Frac( a ) )
    20c0:	00 21 00 17 	srui r1,r1,23
if either operand is a NaN.  Otherwise, the comparison is performed
according to the IEC/IEEE Standard for Binary Floating-point Arithmetic.
-------------------------------------------------------------------------------
*/
flag float32_eq_signaling( float32 a, float32 b )
{
    20c4:	b8 40 20 00 	mv r4,r2

    if (    ( ( extractFloat32Exp( a ) == 0xFF ) && extractFloat32Frac( a ) )
    20c8:	20 21 00 ff 	andi r1,r1,0xff
    20cc:	34 02 00 ff 	mvi r2,255
    20d0:	44 22 00 0c 	be r1,r2,2100 <float32_eq_signaling+0x44>
    20d4:	00 81 00 17 	srui r1,r4,23
    20d8:	34 02 00 ff 	mvi r2,255
    20dc:	20 21 00 ff 	andi r1,r1,0xff
    20e0:	44 22 00 14 	be r1,r2,2130 <float32_eq_signaling+0x74>
         || ( ( extractFloat32Exp( b ) == 0xFF ) && extractFloat32Frac( b ) )
       ) {
        float_raise( float_flag_invalid );
        return 0;
    }
    return ( a == b ) || ( (bits32) ( ( a | b )<<1 ) == 0 );
    20e4:	34 03 00 01 	mvi r3,1
    20e8:	44 a4 00 04 	be r5,r4,20f8 <float32_eq_signaling+0x3c>
    20ec:	b8 85 08 00 	or r1,r4,r5
    20f0:	b4 21 08 00 	add r1,r1,r1
    20f4:	64 23 00 00 	cmpei r3,r1,0

}
    20f8:	b8 60 08 00 	mv r1,r3
    20fc:	c3 a0 00 00 	ret
-------------------------------------------------------------------------------
*/
flag float32_eq_signaling( float32 a, float32 b )
{

    if (    ( ( extractFloat32Exp( a ) == 0xFF ) && extractFloat32Frac( a ) )
    2100:	78 01 00 7f 	mvhi r1,0x7f
    2104:	38 21 ff ff 	ori r1,r1,0xffff
    2108:	a0 a1 08 00 	and r1,r5,r1
    210c:	44 20 ff f2 	be r1,r0,20d4 <float32_eq_signaling+0x18>
    2110:	78 02 00 00 	mvhi r2,0x0
    2114:	38 42 28 ec 	ori r2,r2,0x28ec
    2118:	28 41 00 00 	lw r1,(r2+0)
    211c:	34 03 00 00 	mvi r3,0
    2120:	38 21 00 10 	ori r1,r1,0x10
    2124:	58 41 00 00 	sw (r2+0),r1
        float_raise( float_flag_invalid );
        return 0;
    }
    return ( a == b ) || ( (bits32) ( ( a | b )<<1 ) == 0 );

}
    2128:	b8 60 08 00 	mv r1,r3
    212c:	c3 a0 00 00 	ret
-------------------------------------------------------------------------------
*/
flag float32_eq_signaling( float32 a, float32 b )
{

    if (    ( ( extractFloat32Exp( a ) == 0xFF ) && extractFloat32Frac( a ) )
    2130:	78 01 00 7f 	mvhi r1,0x7f
    2134:	38 21 ff ff 	ori r1,r1,0xffff
    2138:	a0 81 08 00 	and r1,r4,r1
    213c:	44 20 ff ea 	be r1,r0,20e4 <float32_eq_signaling+0x28>
    2140:	78 02 00 00 	mvhi r2,0x0
    2144:	38 42 28 ec 	ori r2,r2,0x28ec
    2148:	28 41 00 00 	lw r1,(r2+0)
    214c:	34 03 00 00 	mvi r3,0
    2150:	38 21 00 10 	ori r1,r1,0x10
    2154:	58 41 00 00 	sw (r2+0),r1
    2158:	e3 ff ff f4 	bi 2128 <float32_eq_signaling+0x6c>

0000215c <float32_le_quiet>:
cause an exception.  Otherwise, the comparison is performed according to the
IEC/IEEE Standard for Binary Floating-point Arithmetic.
-------------------------------------------------------------------------------
*/
flag float32_le_quiet( float32 a, float32 b )
{
    215c:	b8 20 18 00 	mv r3,r1
    flag aSign, bSign;

    if (    ( ( extractFloat32Exp( a ) == 0xFF ) && extractFloat32Frac( a ) )
    2160:	00 21 00 17 	srui r1,r1,23
cause an exception.  Otherwise, the comparison is performed according to the
IEC/IEEE Standard for Binary Floating-point Arithmetic.
-------------------------------------------------------------------------------
*/
flag float32_le_quiet( float32 a, float32 b )
{
    2164:	b8 40 28 00 	mv r5,r2
    flag aSign, bSign;

    if (    ( ( extractFloat32Exp( a ) == 0xFF ) && extractFloat32Frac( a ) )
    2168:	20 21 00 ff 	andi r1,r1,0xff
    216c:	34 02 00 ff 	mvi r2,255
    2170:	44 22 00 14 	be r1,r2,21c0 <float32_le_quiet+0x64>
    2174:	00 a1 00 17 	srui r1,r5,23
    2178:	34 02 00 ff 	mvi r2,255
    217c:	20 21 00 ff 	andi r1,r1,0xff
    2180:	44 22 00 1f 	be r1,r2,21fc <float32_le_quiet+0xa0>
-------------------------------------------------------------------------------
*/
INLINE flag extractFloat32Sign( float32 a )
{

    return a>>31;
    2184:	00 62 00 1f 	srui r2,r3,31
        }
        return 0;
    }
    aSign = extractFloat32Sign( a );
    bSign = extractFloat32Sign( b );
    if ( aSign != bSign ) return aSign || ( (bits32) ( ( a | b )<<1 ) == 0 );
    2188:	00 a1 00 1f 	srui r1,r5,31
    218c:	44 41 00 07 	be r2,r1,21a8 <float32_le_quiet+0x4c>
    2190:	5c 40 00 09 	bne r2,r0,21b4 <float32_le_quiet+0x58>
    2194:	b8 a3 08 00 	or r1,r5,r3
    2198:	b4 21 08 00 	add r1,r1,r1
    219c:	64 24 00 00 	cmpei r4,r1,0
    return ( a == b ) || ( aSign ^ ( a < b ) );

}
    21a0:	b8 80 08 00 	mv r1,r4
    21a4:	c3 a0 00 00 	ret
        return 0;
    }
    aSign = extractFloat32Sign( a );
    bSign = extractFloat32Sign( b );
    if ( aSign != bSign ) return aSign || ( (bits32) ( ( a | b )<<1 ) == 0 );
    return ( a == b ) || ( aSign ^ ( a < b ) );
    21a8:	f4 a3 08 00 	cmpgu r1,r5,r3
    21ac:	fc 22 20 00 	cmpne r4,r1,r2
    21b0:	5c 65 ff fc 	bne r3,r5,21a0 <float32_le_quiet+0x44>
    21b4:	34 04 00 01 	mvi r4,1

}
    21b8:	b8 80 08 00 	mv r1,r4
    21bc:	c3 a0 00 00 	ret
*/
flag float32_le_quiet( float32 a, float32 b )
{
    flag aSign, bSign;

    if (    ( ( extractFloat32Exp( a ) == 0xFF ) && extractFloat32Frac( a ) )
    21c0:	78 01 00 7f 	mvhi r1,0x7f
    21c4:	38 21 ff ff 	ori r1,r1,0xffff
    21c8:	a0 61 08 00 	and r1,r3,r1
    21cc:	44 20 ff ea 	be r1,r0,2174 <float32_le_quiet+0x18>
-------------------------------------------------------------------------------
*/
flag float32_is_signaling_nan( float32 a )
{

    return ( ( ( a>>22 ) & 0x1FF ) == 0x1FE ) && ( a & 0x003FFFFF );
    21d0:	00 61 00 16 	srui r1,r3,22
    21d4:	34 02 01 fe 	mvi r2,510
    21d8:	20 21 01 ff 	andi r1,r1,0x1ff
    21dc:	44 22 00 10 	be r1,r2,221c <float32_le_quiet+0xc0>
        return 0;
    }
    aSign = extractFloat32Sign( a );
    bSign = extractFloat32Sign( b );
    if ( aSign != bSign ) return aSign || ( (bits32) ( ( a | b )<<1 ) == 0 );
    return ( a == b ) || ( aSign ^ ( a < b ) );
    21e0:	00 a1 00 16 	srui r1,r5,22
    21e4:	34 02 01 fe 	mvi r2,510
    21e8:	20 21 01 ff 	andi r1,r1,0x1ff
    21ec:	44 22 00 18 	be r1,r2,224c <float32_le_quiet+0xf0>
    21f0:	34 04 00 00 	mvi r4,0

}
    21f4:	b8 80 08 00 	mv r1,r4
    21f8:	c3 a0 00 00 	ret
*/
flag float32_le_quiet( float32 a, float32 b )
{
    flag aSign, bSign;

    if (    ( ( extractFloat32Exp( a ) == 0xFF ) && extractFloat32Frac( a ) )
    21fc:	78 01 00 7f 	mvhi r1,0x7f
    2200:	38 21 ff ff 	ori r1,r1,0xffff
    2204:	a0 a1 08 00 	and r1,r5,r1
    2208:	44 20 ff df 	be r1,r0,2184 <float32_le_quiet+0x28>
    220c:	00 61 00 16 	srui r1,r3,22
    2210:	34 02 01 fe 	mvi r2,510
    2214:	20 21 01 ff 	andi r1,r1,0x1ff
    2218:	5c 22 ff f2 	bne r1,r2,21e0 <float32_le_quiet+0x84>
    221c:	78 01 00 3f 	mvhi r1,0x3f
    2220:	38 21 ff ff 	ori r1,r1,0xffff
    2224:	a0 61 08 00 	and r1,r3,r1
    2228:	44 20 ff ee 	be r1,r0,21e0 <float32_le_quiet+0x84>
-------------------------------------------------------------------------------
*/
void float_raise( int8 flags )
{

    float_exception_flags |= flags;
    222c:	78 02 00 00 	mvhi r2,0x0
    2230:	38 42 28 ec 	ori r2,r2,0x28ec
    2234:	28 41 00 00 	lw r1,(r2+0)
    2238:	34 04 00 00 	mvi r4,0
    223c:	38 21 00 10 	ori r1,r1,0x10
    2240:	58 41 00 00 	sw (r2+0),r1
    aSign = extractFloat32Sign( a );
    bSign = extractFloat32Sign( b );
    if ( aSign != bSign ) return aSign || ( (bits32) ( ( a | b )<<1 ) == 0 );
    return ( a == b ) || ( aSign ^ ( a < b ) );

}
    2244:	b8 80 08 00 	mv r1,r4
    2248:	c3 a0 00 00 	ret
-------------------------------------------------------------------------------
*/
flag float32_is_signaling_nan( float32 a )
{

    return ( ( ( a>>22 ) & 0x1FF ) == 0x1FE ) && ( a & 0x003FFFFF );
    224c:	78 01 00 3f 	mvhi r1,0x3f
    2250:	38 21 ff ff 	ori r1,r1,0xffff
    2254:	a0 a1 08 00 	and r1,r5,r1
    2258:	5c 20 ff f5 	bne r1,r0,222c <float32_le_quiet+0xd0>
        return 0;
    }
    aSign = extractFloat32Sign( a );
    bSign = extractFloat32Sign( b );
    if ( aSign != bSign ) return aSign || ( (bits32) ( ( a | b )<<1 ) == 0 );
    return ( a == b ) || ( aSign ^ ( a < b ) );
    225c:	34 04 00 00 	mvi r4,0
    2260:	e3 ff ff e5 	bi 21f4 <float32_le_quiet+0x98>

00002264 <float32_lt_quiet>:
exception.  Otherwise, the comparison is performed according to the IEC/IEEE
Standard for Binary Floating-point Arithmetic.
-------------------------------------------------------------------------------
*/
flag float32_lt_quiet( float32 a, float32 b )
{
    2264:	b8 20 20 00 	mv r4,r1
    flag aSign, bSign;

    if (    ( ( extractFloat32Exp( a ) == 0xFF ) && extractFloat32Frac( a ) )
    2268:	00 21 00 17 	srui r1,r1,23
exception.  Otherwise, the comparison is performed according to the IEC/IEEE
Standard for Binary Floating-point Arithmetic.
-------------------------------------------------------------------------------
*/
flag float32_lt_quiet( float32 a, float32 b )
{
    226c:	b8 40 28 00 	mv r5,r2
    flag aSign, bSign;

    if (    ( ( extractFloat32Exp( a ) == 0xFF ) && extractFloat32Frac( a ) )
    2270:	20 21 00 ff 	andi r1,r1,0xff
    2274:	34 02 00 ff 	mvi r2,255
    2278:	44 22 00 14 	be r1,r2,22c8 <float32_lt_quiet+0x64>
    227c:	00 a1 00 17 	srui r1,r5,23
    2280:	34 02 00 ff 	mvi r2,255
    2284:	20 21 00 ff 	andi r1,r1,0xff
    2288:	44 22 00 28 	be r1,r2,2328 <float32_lt_quiet+0xc4>
-------------------------------------------------------------------------------
*/
INLINE flag extractFloat32Sign( float32 a )
{

    return a>>31;
    228c:	00 82 00 1f 	srui r2,r4,31
        }
        return 0;
    }
    aSign = extractFloat32Sign( a );
    bSign = extractFloat32Sign( b );
    if ( aSign != bSign ) return aSign && ( (bits32) ( ( a | b )<<1 ) != 0 );
    2290:	00 a1 00 1f 	srui r1,r5,31
    2294:	44 41 00 07 	be r2,r1,22b0 <float32_lt_quiet+0x4c>
    2298:	44 40 00 09 	be r2,r0,22bc <float32_lt_quiet+0x58>
    229c:	b8 a4 08 00 	or r1,r5,r4
    22a0:	b4 21 08 00 	add r1,r1,r1
    22a4:	7c 23 00 00 	cmpnei r3,r1,0
    return ( a != b ) && ( aSign ^ ( a < b ) );

}
    22a8:	b8 60 08 00 	mv r1,r3
    22ac:	c3 a0 00 00 	ret
        return 0;
    }
    aSign = extractFloat32Sign( a );
    bSign = extractFloat32Sign( b );
    if ( aSign != bSign ) return aSign && ( (bits32) ( ( a | b )<<1 ) != 0 );
    return ( a != b ) && ( aSign ^ ( a < b ) );
    22b0:	f4 a4 08 00 	cmpgu r1,r5,r4
    22b4:	fc 22 18 00 	cmpne r3,r1,r2
    22b8:	5c 85 ff fc 	bne r4,r5,22a8 <float32_lt_quiet+0x44>
    22bc:	34 03 00 00 	mvi r3,0

}
    22c0:	b8 60 08 00 	mv r1,r3
    22c4:	c3 a0 00 00 	ret
*/
flag float32_lt_quiet( float32 a, float32 b )
{
    flag aSign, bSign;

    if (    ( ( extractFloat32Exp( a ) == 0xFF ) && extractFloat32Frac( a ) )
    22c8:	78 01 00 7f 	mvhi r1,0x7f
    22cc:	38 21 ff ff 	ori r1,r1,0xffff
    22d0:	a0 81 08 00 	and r1,r4,r1
    22d4:	44 20 ff ea 	be r1,r0,227c <float32_lt_quiet+0x18>
    22d8:	00 81 00 16 	srui r1,r4,22
    22dc:	34 02 01 fe 	mvi r2,510
    22e0:	20 21 01 ff 	andi r1,r1,0x1ff
    22e4:	44 22 00 19 	be r1,r2,2348 <float32_lt_quiet+0xe4>
-------------------------------------------------------------------------------
*/
void float_raise( int8 flags )
{

    float_exception_flags |= flags;
    22e8:	00 a1 00 16 	srui r1,r5,22
    22ec:	34 02 01 fe 	mvi r2,510
    22f0:	20 21 01 ff 	andi r1,r1,0x1ff
    22f4:	5c 22 ff f2 	bne r1,r2,22bc <float32_lt_quiet+0x58>
    22f8:	78 01 00 3f 	mvhi r1,0x3f
    22fc:	38 21 ff ff 	ori r1,r1,0xffff
    2300:	a0 a1 08 00 	and r1,r5,r1
    2304:	44 20 ff ee 	be r1,r0,22bc <float32_lt_quiet+0x58>
    2308:	78 02 00 00 	mvhi r2,0x0
    230c:	38 42 28 ec 	ori r2,r2,0x28ec
    2310:	28 41 00 00 	lw r1,(r2+0)
    2314:	34 03 00 00 	mvi r3,0
    2318:	38 21 00 10 	ori r1,r1,0x10
    231c:	58 41 00 00 	sw (r2+0),r1
    aSign = extractFloat32Sign( a );
    bSign = extractFloat32Sign( b );
    if ( aSign != bSign ) return aSign && ( (bits32) ( ( a | b )<<1 ) != 0 );
    return ( a != b ) && ( aSign ^ ( a < b ) );

}
    2320:	b8 60 08 00 	mv r1,r3
    2324:	c3 a0 00 00 	ret
*/
flag float32_lt_quiet( float32 a, float32 b )
{
    flag aSign, bSign;

    if (    ( ( extractFloat32Exp( a ) == 0xFF ) && extractFloat32Frac( a ) )
    2328:	78 01 00 7f 	mvhi r1,0x7f
    232c:	38 21 ff ff 	ori r1,r1,0xffff
    2330:	a0 a1 08 00 	and r1,r5,r1
    2334:	44 20 ff d6 	be r1,r0,228c <float32_lt_quiet+0x28>
-------------------------------------------------------------------------------
*/
flag float32_is_signaling_nan( float32 a )
{

    return ( ( ( a>>22 ) & 0x1FF ) == 0x1FE ) && ( a & 0x003FFFFF );
    2338:	00 81 00 16 	srui r1,r4,22
    233c:	34 02 01 fe 	mvi r2,510
    2340:	20 21 01 ff 	andi r1,r1,0x1ff
    2344:	5c 22 ff e9 	bne r1,r2,22e8 <float32_lt_quiet+0x84>
    2348:	78 01 00 3f 	mvhi r1,0x3f
    234c:	38 21 ff ff 	ori r1,r1,0xffff
    2350:	a0 81 08 00 	and r1,r4,r1
    2354:	44 20 ff e5 	be r1,r0,22e8 <float32_lt_quiet+0x84>
    2358:	e3 ff ff ec 	bi 2308 <float32_lt_quiet+0xa4>

0000235c <float32_abs>:
-------------------------------------------------------------------------------
This is an abs function
-------------------------------------------------------------------------------
*/
float32 float32_abs(float32 a)
{
    235c:	37 9c ff fc 	addi sp,sp,-4
    2360:	5b 9d 00 04 	sw (sp+4),ra
    2364:	b8 20 10 00 	mv r2,r1
	if ( extractFloat32Sign( a )){
    2368:	4c 20 00 05 	bge r1,r0,237c <float32_abs+0x20>
	return float32_mul( a, 0xBF800000 ) ;
    236c:	78 02 bf 80 	mvhi r2,0xbf80
    2370:	38 42 00 00 	ori r2,r2,0x0
    2374:	fb ff fb d6 	calli 12cc <float32_mul>
    2378:	b8 20 10 00 	mv r2,r1
	}
	else {
	return a;
	}
}
    237c:	b8 40 08 00 	mv r1,r2
    2380:	2b 9d 00 04 	lw ra,(sp+4)
    2384:	37 9c 00 04 	addi sp,sp,4
    2388:	c3 a0 00 00 	ret

0000238c <float32_artan>:
That formula was taken from equation 7
http://www.iro.umontreal.ca/~mignotte/IFT2425/Documents/EfficientApproximationArctgFunction.pdf
-------------------------------------------------------------------------------
*/
float32 float32_artan( float32 x )
{
    238c:	37 9c ff f8 	addi sp,sp,-8
    2390:	5b 8b 00 08 	sw (sp+8),r11
    2394:	5b 9d 00 04 	sw (sp+4),ra
    2398:	b8 20 58 00 	mv r11,r1
return	float32_mul(x,float32_add(0x3F490FD8,float32_mul(0x3E8BC6A8,float32_sub(0x3F800000,float32_abs(x)))));
    239c:	fb ff ff f0 	calli 235c <float32_abs>
    23a0:	b8 20 10 00 	mv r2,r1
    23a4:	78 01 3f 80 	mvhi r1,0x3f80
    23a8:	38 21 00 00 	ori r1,r1,0x0
    23ac:	fb ff fb b9 	calli 1290 <float32_sub>
    23b0:	b8 20 10 00 	mv r2,r1
    23b4:	78 01 3e 8b 	mvhi r1,0x3e8b
    23b8:	38 21 c6 a8 	ori r1,r1,0xc6a8
    23bc:	fb ff fb c4 	calli 12cc <float32_mul>
    23c0:	b8 20 10 00 	mv r2,r1
    23c4:	78 01 3f 49 	mvhi r1,0x3f49
    23c8:	38 21 0f d8 	ori r1,r1,0xfd8
    23cc:	fb ff fb a2 	calli 1254 <float32_add>
    23d0:	b8 20 10 00 	mv r2,r1
    23d4:	b9 60 08 00 	mv r1,r11
    23d8:	fb ff fb bd 	calli 12cc <float32_mul>
}
    23dc:	2b 9d 00 04 	lw ra,(sp+4)
    23e0:	2b 8b 00 08 	lw r11,(sp+8)
    23e4:	37 9c 00 08 	addi sp,sp,8
    23e8:	c3 a0 00 00 	ret

000023ec <float32_pow2>:
-------------------------------------------------------------------------------
This is the square function
-------------------------------------------------------------------------------
*/
float32 float32_pow2( float32 a)
{
    23ec:	37 9c ff fc 	addi sp,sp,-4
    23f0:	5b 9d 00 04 	sw (sp+4),ra
	return float32_mul(a,a);
    23f4:	b8 20 10 00 	mv r2,r1
    23f8:	fb ff fb b5 	calli 12cc <float32_mul>
}
    23fc:	2b 9d 00 04 	lw ra,(sp+4)
    2400:	37 9c 00 04 	addi sp,sp,4
    2404:	c3 a0 00 00 	ret

00002408 <float32_filterKom>:
// - oldAngle: 	Previous measured angle
// - AGy:		Gyroscope angle
// - AAc:		Accelerometer angle
// - dt:		time
//-----------------------------------------------------------------------
float32 float32_filterKom(float32 oldAngle, float32 AGy, float32 AAc, float32 dt){
    2408:	37 9c ff f0 	addi sp,sp,-16
    240c:	5b 8b 00 10 	sw (sp+16),r11
    2410:	5b 8c 00 0c 	sw (sp+12),r12
    2414:	5b 8d 00 08 	sw (sp+8),r13
    2418:	5b 9d 00 04 	sw (sp+4),ra
    241c:	b8 40 58 00 	mv r11,r2
	//Filter: newAngle= 0.98 *(oldAngle + AGy * dt) + 0.02 * AAc
	dt = float32_mul(dt, 0x322BCC77); //0,00000001
    2420:	78 02 32 2b 	mvhi r2,0x322b
// - oldAngle: 	Previous measured angle
// - AGy:		Gyroscope angle
// - AAc:		Accelerometer angle
// - dt:		time
//-----------------------------------------------------------------------
float32 float32_filterKom(float32 oldAngle, float32 AGy, float32 AAc, float32 dt){
    2424:	b8 20 60 00 	mv r12,r1
	//Filter: newAngle= 0.98 *(oldAngle + AGy * dt) + 0.02 * AAc
	dt = float32_mul(dt, 0x322BCC77); //0,00000001
    2428:	38 42 cc 77 	ori r2,r2,0xcc77
    242c:	b8 80 08 00 	mv r1,r4
// - oldAngle: 	Previous measured angle
// - AGy:		Gyroscope angle
// - AAc:		Accelerometer angle
// - dt:		time
//-----------------------------------------------------------------------
float32 float32_filterKom(float32 oldAngle, float32 AGy, float32 AAc, float32 dt){
    2430:	b8 60 68 00 	mv r13,r3
	//Filter: newAngle= 0.98 *(oldAngle + AGy * dt) + 0.02 * AAc
	dt = float32_mul(dt, 0x322BCC77); //0,00000001
    2434:	fb ff fb a6 	calli 12cc <float32_mul>
    2438:	b8 20 10 00 	mv r2,r1
	float32 newAngle = float32_mul(AGy, dt);
    243c:	b9 60 08 00 	mv r1,r11
    2440:	fb ff fb a3 	calli 12cc <float32_mul>
	newAngle = float32_add(newAngle, oldAngle);
    2444:	b9 80 10 00 	mv r2,r12
    2448:	fb ff fb 83 	calli 1254 <float32_add>
	newAngle = float32_mul(newAngle, alfa);
    244c:	78 02 3f 4c 	mvhi r2,0x3f4c
    2450:	38 42 cc cd 	ori r2,r2,0xcccd
    2454:	fb ff fb 9e 	calli 12cc <float32_mul>
	float32 temp = float32_mul(AAc, beta);
    2458:	78 02 3e 4c 	mvhi r2,0x3e4c
float32 float32_filterKom(float32 oldAngle, float32 AGy, float32 AAc, float32 dt){
	//Filter: newAngle= 0.98 *(oldAngle + AGy * dt) + 0.02 * AAc
	dt = float32_mul(dt, 0x322BCC77); //0,00000001
	float32 newAngle = float32_mul(AGy, dt);
	newAngle = float32_add(newAngle, oldAngle);
	newAngle = float32_mul(newAngle, alfa);
    245c:	b8 20 58 00 	mv r11,r1
	float32 temp = float32_mul(AAc, beta);
    2460:	38 42 cc cd 	ori r2,r2,0xcccd
    2464:	b9 a0 08 00 	mv r1,r13
    2468:	fb ff fb 99 	calli 12cc <float32_mul>
    246c:	b8 20 10 00 	mv r2,r1
	return float32_add(newAngle, temp);
    2470:	b9 60 08 00 	mv r1,r11
    2474:	fb ff fb 78 	calli 1254 <float32_add>
}
    2478:	2b 9d 00 04 	lw ra,(sp+4)
    247c:	2b 8b 00 10 	lw r11,(sp+16)
    2480:	2b 8c 00 0c 	lw r12,(sp+12)
    2484:	2b 8d 00 08 	lw r13,(sp+8)
    2488:	37 9c 00 10 	addi sp,sp,16
    248c:	c3 a0 00 00 	ret
